
tools/system：     文件格式 elf32-i386


Disassembly of section .text:

00000000 <pg_dir>:
       0:	b8 10 00 00 00       	mov    $0x10,%eax
       5:	8e d8                	mov    %eax,%ds
       7:	8e c0                	mov    %eax,%es
       9:	8e e0                	mov    %eax,%fs
       b:	8e e8                	mov    %eax,%gs
       d:	0f b2 25 60 32 03 00 	lss    0x33260,%esp
      14:	e8 58 00 00 00       	call   71 <setup_idt>
      19:	e8 83 00 00 00       	call   a1 <setup_gdt>
      1e:	b8 10 00 00 00       	mov    $0x10,%eax
      23:	8e d8                	mov    %eax,%ds
      25:	8e c0                	mov    %eax,%es
      27:	8e e0                	mov    %eax,%fs
      29:	8e e8                	mov    %eax,%gs
      2b:	0f b2 25 60 32 03 00 	lss    0x33260,%esp
      32:	31 c0                	xor    %eax,%eax
      34:	40                   	inc    %eax
      35:	a3 00 00 00 00       	mov    %eax,0x0
      3a:	39 05 00 00 10 00    	cmp    %eax,0x100000
      40:	74 f2                	je     34 <OLDSS+0x4>
      42:	0f 20 c0             	mov    %cr0,%eax
      45:	25 11 00 00 80       	and    $0x80000011,%eax
      4a:	83 c8 02             	or     $0x2,%eax
      4d:	0f 22 c0             	mov    %eax,%cr0
      50:	e8 05 00 00 00       	call   5a <check_x87>
      55:	e9 a6 53 00 00       	jmp    5400 <after_page_tables>

0000005a <check_x87>:
      5a:	db e3                	fninit 
      5c:	9b df e0             	fstsw  %ax
      5f:	3c 00                	cmp    $0x0,%al
      61:	74 0b                	je     6e <check_x87+0x14>
      63:	0f 20 c0             	mov    %cr0,%eax
      66:	83 f0 06             	xor    $0x6,%eax
      69:	0f 22 c0             	mov    %eax,%cr0
      6c:	c3                   	ret    
      6d:	90                   	nop
      6e:	db e4                	fnsetpm(287 only) 
      70:	c3                   	ret    

00000071 <setup_idt>:
      71:	8d 15 28 54 00 00    	lea    0x5428,%edx
      77:	b8 00 00 08 00       	mov    $0x80000,%eax
      7c:	66 89 d0             	mov    %dx,%ax
      7f:	66 ba 00 8e          	mov    $0x8e00,%dx
      83:	8d 3d b8 54 00 00    	lea    0x54b8,%edi
      89:	b9 00 01 00 00       	mov    $0x100,%ecx

0000008e <rp_sidt>:
      8e:	89 07                	mov    %eax,(%edi)
      90:	89 57 04             	mov    %edx,0x4(%edi)
      93:	83 c7 08             	add    $0x8,%edi
      96:	49                   	dec    %ecx
      97:	75 f5                	jne    8e <rp_sidt>
      99:	0f 01 1d aa 54 00 00 	lidtl  0x54aa
      a0:	c3                   	ret    

000000a1 <setup_gdt>:
      a1:	0f 01 15 b2 54 00 00 	lgdtl  0x54b2
      a8:	c3                   	ret    
	...

00001000 <pg0>:
	...

00002000 <pg1>:
	...

00003000 <pg2>:
	...

00004000 <pg3>:
	...

00005000 <tmp_floppy_area>:
	...

00005400 <after_page_tables>:
    5400:	6a 00                	push   $0x0
    5402:	6a 00                	push   $0x0
    5404:	6a 00                	push   $0x0
    5406:	68 12 54 00 00       	push   $0x5412
    540b:	68 70 68 00 00       	push   $0x6870
    5410:	eb 3c                	jmp    544e <setup_paging>

00005412 <L6>:
    5412:	eb fe                	jmp    5412 <L6>

00005414 <int_msg>:
    5414:	55                   	push   %ebp
    5415:	6e                   	outsb  %ds:(%esi),(%dx)
    5416:	6b 6e 6f 77          	imul   $0x77,0x6f(%esi),%ebp
    541a:	6e                   	outsb  %ds:(%esi),(%dx)
    541b:	20 69 6e             	and    %ch,0x6e(%ecx)
    541e:	74 65                	je     5485 <setup_paging+0x37>
    5420:	72 72                	jb     5494 <setup_paging+0x46>
    5422:	75 70                	jne    5494 <setup_paging+0x46>
    5424:	74 0a                	je     5430 <ignore_int+0x8>
    5426:	0d                   	.byte 0xd
	...

00005428 <ignore_int>:
    5428:	50                   	push   %eax
    5429:	51                   	push   %ecx
    542a:	52                   	push   %edx
    542b:	1e                   	push   %ds
    542c:	06                   	push   %es
    542d:	0f a0                	push   %fs
    542f:	b8 10 00 00 00       	mov    $0x10,%eax
    5434:	8e d8                	mov    %eax,%ds
    5436:	8e c0                	mov    %eax,%es
    5438:	8e e0                	mov    %eax,%fs
    543a:	68 14 54 00 00       	push   $0x5414
    543f:	e8 ee 3e 00 00       	call   9332 <printk>
    5444:	58                   	pop    %eax
    5445:	0f a1                	pop    %fs
    5447:	07                   	pop    %es
    5448:	1f                   	pop    %ds
    5449:	5a                   	pop    %edx
    544a:	59                   	pop    %ecx
    544b:	58                   	pop    %eax
    544c:	cf                   	iret   
    544d:	90                   	nop

0000544e <setup_paging>:
    544e:	b9 00 14 00 00       	mov    $0x1400,%ecx
    5453:	31 c0                	xor    %eax,%eax
    5455:	31 ff                	xor    %edi,%edi
    5457:	fc                   	cld    
    5458:	f3 ab                	rep stos %eax,%es:(%edi)
    545a:	c7 05 00 00 00 00 07 	movl   $0x1007,0x0
    5461:	10 00 00 
    5464:	c7 05 04 00 00 00 07 	movl   $0x2007,0x4
    546b:	20 00 00 
    546e:	c7 05 08 00 00 00 07 	movl   $0x3007,0x8
    5475:	30 00 00 
    5478:	c7 05 0c 00 00 00 07 	movl   $0x4007,0xc
    547f:	40 00 00 
    5482:	bf fc 4f 00 00       	mov    $0x4ffc,%edi
    5487:	b8 07 f0 ff 00       	mov    $0xfff007,%eax
    548c:	fd                   	std    
    548d:	ab                   	stos   %eax,%es:(%edi)
    548e:	2d 00 10 00 00       	sub    $0x1000,%eax
    5493:	7d f8                	jge    548d <setup_paging+0x3f>
    5495:	fc                   	cld    
    5496:	31 c0                	xor    %eax,%eax
    5498:	0f 22 d8             	mov    %eax,%cr3
    549b:	0f 20 c0             	mov    %cr0,%eax
    549e:	0d 00 00 00 80       	or     $0x80000000,%eax
    54a3:	0f 22 c0             	mov    %eax,%cr0
    54a6:	c3                   	ret    
    54a7:	90                   	nop
	...

000054aa <idt_descr>:
    54aa:	ff 07                	incl   (%edi)
    54ac:	b8 54 00 00 00       	mov    $0x54,%eax
	...

000054b2 <gdt_descr>:
    54b2:	ff 07                	incl   (%edi)
    54b4:	b8                   	.byte 0xb8
    54b5:	5c                   	pop    %esp
	...

000054b8 <idt>:
	...

00005cb8 <gdt>:
	...
    5cc0:	ff 0f                	decl   (%edi)
    5cc2:	00 00                	add    %al,(%eax)
    5cc4:	00 9a c0 00 ff 0f    	add    %bl,0xfff00c0(%edx)
    5cca:	00 00                	add    %al,(%eax)
    5ccc:	00 92 c0 00 00 00    	add    %dl,0xc0(%edx)
	...

000064b8 <fork>:
// __attribute__((always_inline))表示将函数强制设置为内联函数
// int fork(void) __attribute__((always_inline));
//  int pause()系统调用：暂停进程的执行，直到收到一个信号。
// int pause(void) __attribute__((always_inline));
// fork()系统调用函数的定义
_syscall0(int, fork)
    64b8:	83 ec 10             	sub    $0x10,%esp
    64bb:	e8 36 08 00 00       	call   6cf6 <__x86.get_pc_thunk.dx>
    64c0:	81 c2 40 bb 02 00    	add    $0x2bb40,%edx
    64c6:	b8 02 00 00 00       	mov    $0x2,%eax
    64cb:	cd 80                	int    $0x80
    64cd:	89 44 24 0c          	mov    %eax,0xc(%esp)
    64d1:	83 7c 24 0c 00       	cmpl   $0x0,0xc(%esp)
    64d6:	78 06                	js     64de <fork+0x26>
    64d8:	8b 44 24 0c          	mov    0xc(%esp),%eax
    64dc:	eb 15                	jmp    64f3 <fork+0x3b>
    64de:	8b 44 24 0c          	mov    0xc(%esp),%eax
    64e2:	f7 d8                	neg    %eax
    64e4:	89 c1                	mov    %eax,%ecx
    64e6:	c7 c0 a4 a8 04 00    	mov    $0x4a8a4,%eax
    64ec:	89 08                	mov    %ecx,(%eax)
    64ee:	b8 ff ff ff ff       	mov    $0xffffffff,%eax
    64f3:	83 c4 10             	add    $0x10,%esp
    64f6:	c3                   	ret    

000064f7 <pause>:
// pause()系统调用函数的定义
_syscall0(int, pause)
    64f7:	83 ec 10             	sub    $0x10,%esp
    64fa:	e8 f7 07 00 00       	call   6cf6 <__x86.get_pc_thunk.dx>
    64ff:	81 c2 01 bb 02 00    	add    $0x2bb01,%edx
    6505:	b8 1d 00 00 00       	mov    $0x1d,%eax
    650a:	cd 80                	int    $0x80
    650c:	89 44 24 0c          	mov    %eax,0xc(%esp)
    6510:	83 7c 24 0c 00       	cmpl   $0x0,0xc(%esp)
    6515:	78 06                	js     651d <pause+0x26>
    6517:	8b 44 24 0c          	mov    0xc(%esp),%eax
    651b:	eb 15                	jmp    6532 <pause+0x3b>
    651d:	8b 44 24 0c          	mov    0xc(%esp),%eax
    6521:	f7 d8                	neg    %eax
    6523:	89 c1                	mov    %eax,%ecx
    6525:	c7 c0 a4 a8 04 00    	mov    $0x4a8a4,%eax
    652b:	89 08                	mov    %ecx,(%eax)
    652d:	b8 ff ff ff ff       	mov    $0xffffffff,%eax
    6532:	83 c4 10             	add    $0x10,%esp
    6535:	c3                   	ret    

00006536 <setup>:
// int setup(void * BIOS)系统调用,仅用于linux初始化(仅在这个程序中被调用).
_syscall1(int, setup, void *, BIOS)
    6536:	53                   	push   %ebx
    6537:	83 ec 10             	sub    $0x10,%esp
    653a:	e8 b7 07 00 00       	call   6cf6 <__x86.get_pc_thunk.dx>
    653f:	81 c2 c1 ba 02 00    	add    $0x2bac1,%edx
    6545:	8b 4c 24 18          	mov    0x18(%esp),%ecx
    6549:	b8 00 00 00 00       	mov    $0x0,%eax
    654e:	89 cb                	mov    %ecx,%ebx
    6550:	cd 80                	int    $0x80
    6552:	89 44 24 0c          	mov    %eax,0xc(%esp)
    6556:	83 7c 24 0c 00       	cmpl   $0x0,0xc(%esp)
    655b:	78 06                	js     6563 <setup+0x2d>
    655d:	8b 44 24 0c          	mov    0xc(%esp),%eax
    6561:	eb 15                	jmp    6578 <setup+0x42>
    6563:	8b 44 24 0c          	mov    0xc(%esp),%eax
    6567:	f7 d8                	neg    %eax
    6569:	89 c1                	mov    %eax,%ecx
    656b:	c7 c0 a4 a8 04 00    	mov    $0x4a8a4,%eax
    6571:	89 08                	mov    %ecx,(%eax)
    6573:	b8 ff ff ff ff       	mov    $0xffffffff,%eax
    6578:	83 c4 10             	add    $0x10,%esp
    657b:	5b                   	pop    %ebx
    657c:	c3                   	ret    

0000657d <sync>:
// int sync()系统调用：更新文件系统。
_syscall0(int, sync)
    657d:	83 ec 10             	sub    $0x10,%esp
    6580:	e8 71 07 00 00       	call   6cf6 <__x86.get_pc_thunk.dx>
    6585:	81 c2 7b ba 02 00    	add    $0x2ba7b,%edx
    658b:	b8 24 00 00 00       	mov    $0x24,%eax
    6590:	cd 80                	int    $0x80
    6592:	89 44 24 0c          	mov    %eax,0xc(%esp)
    6596:	83 7c 24 0c 00       	cmpl   $0x0,0xc(%esp)
    659b:	78 06                	js     65a3 <sync+0x26>
    659d:	8b 44 24 0c          	mov    0xc(%esp),%eax
    65a1:	eb 15                	jmp    65b8 <sync+0x3b>
    65a3:	8b 44 24 0c          	mov    0xc(%esp),%eax
    65a7:	f7 d8                	neg    %eax
    65a9:	89 c1                	mov    %eax,%ecx
    65ab:	c7 c0 a4 a8 04 00    	mov    $0x4a8a4,%eax
    65b1:	89 08                	mov    %ecx,(%eax)
    65b3:	b8 ff ff ff ff       	mov    $0xffffffff,%eax
    65b8:	83 c4 10             	add    $0x10,%esp
    65bb:	c3                   	ret    

000065bc <fork_for_process0>:
extern long rd_init(long mem_start, int length);	// 虚拟盘初始化(blk_drv/ramdisk.c)
extern long kernel_mktime(struct tm * tm);			// 计算系统开机启动时间(秒)

// fork系统调用函数,该函数作为static inline表示内联函数，主要用来在进程0里面创建进程1的时候内联，使进程0在生成进程1的时候
// 不使用自己的用户堆栈
static inline long fork_for_process0() {
    65bc:	83 ec 10             	sub    $0x10,%esp
    65bf:	e8 32 07 00 00       	call   6cf6 <__x86.get_pc_thunk.dx>
    65c4:	81 c2 3c ba 02 00    	add    $0x2ba3c,%edx
	long __res;
	__asm__ volatile (
    65ca:	b8 02 00 00 00       	mov    $0x2,%eax
    65cf:	cd 80                	int    $0x80
    65d1:	89 44 24 0c          	mov    %eax,0xc(%esp)
		"int $0x80\n\t"  														/* 调用系统中断0x80 ，为系统调用中断*/
		: "=a" (__res)  														/* 返回值->eax(__res) */
		: "0" (2));  															/* 输入为系统中断调用号__NR_name */
	if (__res >= 0)  															/* 如果返回值>=0,则直接返回该值 */
    65d5:	83 7c 24 0c 00       	cmpl   $0x0,0xc(%esp)
    65da:	78 06                	js     65e2 <fork_for_process0+0x26>
		return __res;
    65dc:	8b 44 24 0c          	mov    0xc(%esp),%eax
    65e0:	eb 15                	jmp    65f7 <fork_for_process0+0x3b>
	errno = -__res;  															/* 否则置出错号,并返回-1 */
    65e2:	8b 44 24 0c          	mov    0xc(%esp),%eax
    65e6:	f7 d8                	neg    %eax
    65e8:	89 c1                	mov    %eax,%ecx
    65ea:	c7 c0 a4 a8 04 00    	mov    $0x4a8a4,%eax
    65f0:	89 08                	mov    %ecx,(%eax)
	return -1;
    65f2:	b8 ff ff ff ff       	mov    $0xffffffff,%eax
}
    65f7:	83 c4 10             	add    $0x10,%esp
    65fa:	c3                   	ret    

000065fb <sprintf>:

// 内核专用sprintf()函数.该函数用于产生格式化信息并输出到指定缓冲区str中.参数'*fmt'指定输出将采用格式.
static int sprintf(char * str, const char *fmt, ...)
{
    65fb:	53                   	push   %ebx
    65fc:	83 ec 18             	sub    $0x18,%esp
    65ff:	e8 ee 06 00 00       	call   6cf2 <__x86.get_pc_thunk.ax>
    6604:	05 fc b9 02 00       	add    $0x2b9fc,%eax
	va_list args;
	int i;

	va_start(args, fmt);
    6609:	8d 54 24 24          	lea    0x24(%esp),%edx
    660d:	83 c2 04             	add    $0x4,%edx
    6610:	89 54 24 0c          	mov    %edx,0xc(%esp)
	i = vsprintf(str, fmt, args);
    6614:	8b 54 24 24          	mov    0x24(%esp),%edx
    6618:	83 ec 04             	sub    $0x4,%esp
    661b:	ff 74 24 10          	pushl  0x10(%esp)
    661f:	52                   	push   %edx
    6620:	ff 74 24 2c          	pushl  0x2c(%esp)
    6624:	89 c3                	mov    %eax,%ebx
    6626:	e8 6a 30 00 00       	call   9695 <vsprintf>
    662b:	83 c4 10             	add    $0x10,%esp
    662e:	89 44 24 08          	mov    %eax,0x8(%esp)
	va_end(args);
	return i;
    6632:	8b 44 24 08          	mov    0x8(%esp),%eax
}
    6636:	83 c4 18             	add    $0x18,%esp
    6639:	5b                   	pop    %ebx
    663a:	c3                   	ret    

0000663b <time_init>:
#define BCD_TO_BIN(val) ((val) = ((val)&15) + ((val) >> 4) * 10)

// 该函数取CMOS实时钟信息作为开机时间,并保存到全局变量startup_time(秒)中.其中调用的函数kernel_mktime()用于计算从
// 1970年1月1日0时起到开机当日经过的秒数,作为开机时间.
static void time_init(void)
{
    663b:	53                   	push   %ebx
    663c:	83 ec 38             	sub    $0x38,%esp
    663f:	e8 b6 06 00 00       	call   6cfa <__x86.get_pc_thunk.bx>
    6644:	81 c3 bc b9 02 00    	add    $0x2b9bc,%ebx
	struct tm time;								// 时间结构tm定义在include/time.h中
	// CMOS的访问速度很慢.为了减小时间误差,在读取了下面循环中所有数值后,若此时CMOS中秒值了变化,那么就重新读取所有值.这样内核
	// 就能把与CMOS时间误差控制在1秒之内.
	do {
		time.tm_sec = CMOS_READ(0);				// 当前时间秒值(均是BCD码值)
    664a:	b8 80 00 00 00       	mov    $0x80,%eax
    664f:	ba 70 00 00 00       	mov    $0x70,%edx
    6654:	ee                   	out    %al,(%dx)
    6655:	eb 00                	jmp    6657 <time_init+0x1c>
    6657:	eb 00                	jmp    6659 <time_init+0x1e>
    6659:	b8 71 00 00 00       	mov    $0x71,%eax
    665e:	89 c2                	mov    %eax,%edx
    6660:	ec                   	in     (%dx),%al
    6661:	eb 00                	jmp    6663 <time_init+0x28>
    6663:	eb 00                	jmp    6665 <time_init+0x2a>
    6665:	88 44 24 2f          	mov    %al,0x2f(%esp)
    6669:	0f b6 44 24 2f       	movzbl 0x2f(%esp),%eax
    666e:	0f b6 c0             	movzbl %al,%eax
    6671:	89 44 24 04          	mov    %eax,0x4(%esp)
		time.tm_min = CMOS_READ(2);				// 当前分钟值.
    6675:	b8 82 00 00 00       	mov    $0x82,%eax
    667a:	ba 70 00 00 00       	mov    $0x70,%edx
    667f:	ee                   	out    %al,(%dx)
    6680:	eb 00                	jmp    6682 <time_init+0x47>
    6682:	eb 00                	jmp    6684 <time_init+0x49>
    6684:	b8 71 00 00 00       	mov    $0x71,%eax
    6689:	89 c2                	mov    %eax,%edx
    668b:	ec                   	in     (%dx),%al
    668c:	eb 00                	jmp    668e <time_init+0x53>
    668e:	eb 00                	jmp    6690 <time_init+0x55>
    6690:	88 44 24 2e          	mov    %al,0x2e(%esp)
    6694:	0f b6 44 24 2e       	movzbl 0x2e(%esp),%eax
    6699:	0f b6 c0             	movzbl %al,%eax
    669c:	89 44 24 08          	mov    %eax,0x8(%esp)
		time.tm_hour = CMOS_READ(4);			// 当前小时值.
    66a0:	b8 84 00 00 00       	mov    $0x84,%eax
    66a5:	ba 70 00 00 00       	mov    $0x70,%edx
    66aa:	ee                   	out    %al,(%dx)
    66ab:	eb 00                	jmp    66ad <time_init+0x72>
    66ad:	eb 00                	jmp    66af <time_init+0x74>
    66af:	b8 71 00 00 00       	mov    $0x71,%eax
    66b4:	89 c2                	mov    %eax,%edx
    66b6:	ec                   	in     (%dx),%al
    66b7:	eb 00                	jmp    66b9 <time_init+0x7e>
    66b9:	eb 00                	jmp    66bb <time_init+0x80>
    66bb:	88 44 24 2d          	mov    %al,0x2d(%esp)
    66bf:	0f b6 44 24 2d       	movzbl 0x2d(%esp),%eax
    66c4:	0f b6 c0             	movzbl %al,%eax
    66c7:	89 44 24 0c          	mov    %eax,0xc(%esp)
		time.tm_mday = CMOS_READ(7);			// 一月中的当天日期.
    66cb:	b8 87 00 00 00       	mov    $0x87,%eax
    66d0:	ba 70 00 00 00       	mov    $0x70,%edx
    66d5:	ee                   	out    %al,(%dx)
    66d6:	eb 00                	jmp    66d8 <time_init+0x9d>
    66d8:	eb 00                	jmp    66da <time_init+0x9f>
    66da:	b8 71 00 00 00       	mov    $0x71,%eax
    66df:	89 c2                	mov    %eax,%edx
    66e1:	ec                   	in     (%dx),%al
    66e2:	eb 00                	jmp    66e4 <time_init+0xa9>
    66e4:	eb 00                	jmp    66e6 <time_init+0xab>
    66e6:	88 44 24 2c          	mov    %al,0x2c(%esp)
    66ea:	0f b6 44 24 2c       	movzbl 0x2c(%esp),%eax
    66ef:	0f b6 c0             	movzbl %al,%eax
    66f2:	89 44 24 10          	mov    %eax,0x10(%esp)
		time.tm_mon = CMOS_READ(8);				// 当前月份(1-12)
    66f6:	b8 88 00 00 00       	mov    $0x88,%eax
    66fb:	ba 70 00 00 00       	mov    $0x70,%edx
    6700:	ee                   	out    %al,(%dx)
    6701:	eb 00                	jmp    6703 <time_init+0xc8>
    6703:	eb 00                	jmp    6705 <time_init+0xca>
    6705:	b8 71 00 00 00       	mov    $0x71,%eax
    670a:	89 c2                	mov    %eax,%edx
    670c:	ec                   	in     (%dx),%al
    670d:	eb 00                	jmp    670f <time_init+0xd4>
    670f:	eb 00                	jmp    6711 <time_init+0xd6>
    6711:	88 44 24 2b          	mov    %al,0x2b(%esp)
    6715:	0f b6 44 24 2b       	movzbl 0x2b(%esp),%eax
    671a:	0f b6 c0             	movzbl %al,%eax
    671d:	89 44 24 14          	mov    %eax,0x14(%esp)
		time.tm_year = CMOS_READ(9);			// 当前年份.
    6721:	b8 89 00 00 00       	mov    $0x89,%eax
    6726:	ba 70 00 00 00       	mov    $0x70,%edx
    672b:	ee                   	out    %al,(%dx)
    672c:	eb 00                	jmp    672e <time_init+0xf3>
    672e:	eb 00                	jmp    6730 <time_init+0xf5>
    6730:	b8 71 00 00 00       	mov    $0x71,%eax
    6735:	89 c2                	mov    %eax,%edx
    6737:	ec                   	in     (%dx),%al
    6738:	eb 00                	jmp    673a <time_init+0xff>
    673a:	eb 00                	jmp    673c <time_init+0x101>
    673c:	88 44 24 2a          	mov    %al,0x2a(%esp)
    6740:	0f b6 44 24 2a       	movzbl 0x2a(%esp),%eax
    6745:	0f b6 c0             	movzbl %al,%eax
    6748:	89 44 24 18          	mov    %eax,0x18(%esp)
	} while (time.tm_sec != CMOS_READ(0));
    674c:	8b 4c 24 04          	mov    0x4(%esp),%ecx
    6750:	b8 80 00 00 00       	mov    $0x80,%eax
    6755:	ba 70 00 00 00       	mov    $0x70,%edx
    675a:	ee                   	out    %al,(%dx)
    675b:	eb 00                	jmp    675d <time_init+0x122>
    675d:	eb 00                	jmp    675f <time_init+0x124>
    675f:	b8 71 00 00 00       	mov    $0x71,%eax
    6764:	89 c2                	mov    %eax,%edx
    6766:	ec                   	in     (%dx),%al
    6767:	eb 00                	jmp    6769 <time_init+0x12e>
    6769:	eb 00                	jmp    676b <time_init+0x130>
    676b:	88 44 24 29          	mov    %al,0x29(%esp)
    676f:	0f b6 44 24 29       	movzbl 0x29(%esp),%eax
    6774:	0f b6 c0             	movzbl %al,%eax
    6777:	39 c1                	cmp    %eax,%ecx
    6779:	0f 85 cb fe ff ff    	jne    664a <time_init+0xf>
	BCD_TO_BIN(time.tm_sec);					// 转换成进进制数值.
    677f:	8b 44 24 04          	mov    0x4(%esp),%eax
    6783:	83 e0 0f             	and    $0xf,%eax
    6786:	89 c1                	mov    %eax,%ecx
    6788:	8b 44 24 04          	mov    0x4(%esp),%eax
    678c:	c1 f8 04             	sar    $0x4,%eax
    678f:	89 c2                	mov    %eax,%edx
    6791:	89 d0                	mov    %edx,%eax
    6793:	c1 e0 02             	shl    $0x2,%eax
    6796:	01 d0                	add    %edx,%eax
    6798:	01 c0                	add    %eax,%eax
    679a:	01 c8                	add    %ecx,%eax
    679c:	89 44 24 04          	mov    %eax,0x4(%esp)
	BCD_TO_BIN(time.tm_min);
    67a0:	8b 44 24 08          	mov    0x8(%esp),%eax
    67a4:	83 e0 0f             	and    $0xf,%eax
    67a7:	89 c1                	mov    %eax,%ecx
    67a9:	8b 44 24 08          	mov    0x8(%esp),%eax
    67ad:	c1 f8 04             	sar    $0x4,%eax
    67b0:	89 c2                	mov    %eax,%edx
    67b2:	89 d0                	mov    %edx,%eax
    67b4:	c1 e0 02             	shl    $0x2,%eax
    67b7:	01 d0                	add    %edx,%eax
    67b9:	01 c0                	add    %eax,%eax
    67bb:	01 c8                	add    %ecx,%eax
    67bd:	89 44 24 08          	mov    %eax,0x8(%esp)
	BCD_TO_BIN(time.tm_hour);
    67c1:	8b 44 24 0c          	mov    0xc(%esp),%eax
    67c5:	83 e0 0f             	and    $0xf,%eax
    67c8:	89 c1                	mov    %eax,%ecx
    67ca:	8b 44 24 0c          	mov    0xc(%esp),%eax
    67ce:	c1 f8 04             	sar    $0x4,%eax
    67d1:	89 c2                	mov    %eax,%edx
    67d3:	89 d0                	mov    %edx,%eax
    67d5:	c1 e0 02             	shl    $0x2,%eax
    67d8:	01 d0                	add    %edx,%eax
    67da:	01 c0                	add    %eax,%eax
    67dc:	01 c8                	add    %ecx,%eax
    67de:	89 44 24 0c          	mov    %eax,0xc(%esp)
	BCD_TO_BIN(time.tm_mday);
    67e2:	8b 44 24 10          	mov    0x10(%esp),%eax
    67e6:	83 e0 0f             	and    $0xf,%eax
    67e9:	89 c1                	mov    %eax,%ecx
    67eb:	8b 44 24 10          	mov    0x10(%esp),%eax
    67ef:	c1 f8 04             	sar    $0x4,%eax
    67f2:	89 c2                	mov    %eax,%edx
    67f4:	89 d0                	mov    %edx,%eax
    67f6:	c1 e0 02             	shl    $0x2,%eax
    67f9:	01 d0                	add    %edx,%eax
    67fb:	01 c0                	add    %eax,%eax
    67fd:	01 c8                	add    %ecx,%eax
    67ff:	89 44 24 10          	mov    %eax,0x10(%esp)
	BCD_TO_BIN(time.tm_mon);
    6803:	8b 44 24 14          	mov    0x14(%esp),%eax
    6807:	83 e0 0f             	and    $0xf,%eax
    680a:	89 c1                	mov    %eax,%ecx
    680c:	8b 44 24 14          	mov    0x14(%esp),%eax
    6810:	c1 f8 04             	sar    $0x4,%eax
    6813:	89 c2                	mov    %eax,%edx
    6815:	89 d0                	mov    %edx,%eax
    6817:	c1 e0 02             	shl    $0x2,%eax
    681a:	01 d0                	add    %edx,%eax
    681c:	01 c0                	add    %eax,%eax
    681e:	01 c8                	add    %ecx,%eax
    6820:	89 44 24 14          	mov    %eax,0x14(%esp)
	BCD_TO_BIN(time.tm_year);
    6824:	8b 44 24 18          	mov    0x18(%esp),%eax
    6828:	83 e0 0f             	and    $0xf,%eax
    682b:	89 c1                	mov    %eax,%ecx
    682d:	8b 44 24 18          	mov    0x18(%esp),%eax
    6831:	c1 f8 04             	sar    $0x4,%eax
    6834:	89 c2                	mov    %eax,%edx
    6836:	89 d0                	mov    %edx,%eax
    6838:	c1 e0 02             	shl    $0x2,%eax
    683b:	01 d0                	add    %edx,%eax
    683d:	01 c0                	add    %eax,%eax
    683f:	01 c8                	add    %ecx,%eax
    6841:	89 44 24 18          	mov    %eax,0x18(%esp)
	time.tm_mon--;								// tm_mon中月份范围是0~11.
    6845:	8b 44 24 14          	mov    0x14(%esp),%eax
    6849:	83 e8 01             	sub    $0x1,%eax
    684c:	89 44 24 14          	mov    %eax,0x14(%esp)
	startup_time = kernel_mktime(&time);		// 计算开机时间.kernel/mktime.c
    6850:	83 ec 0c             	sub    $0xc,%esp
    6853:	8d 44 24 10          	lea    0x10(%esp),%eax
    6857:	50                   	push   %eax
    6858:	e8 fe 60 00 00       	call   c95b <kernel_mktime>
    685d:	83 c4 10             	add    $0x10,%esp
    6860:	89 c2                	mov    %eax,%edx
    6862:	c7 c0 84 3b 03 00    	mov    $0x33b84,%eax
    6868:	89 10                	mov    %edx,(%eax)
}
    686a:	90                   	nop
    686b:	83 c4 38             	add    $0x38,%esp
    686e:	5b                   	pop    %ebx
    686f:	c3                   	ret    

00006870 <main>:
struct drive_info { char dummy[32]; } drive_info;	// 用于存放硬盘参数表信息.

// 内核初始化主程序.初始化结束后将以任务0(idle任务即空闲任务)的身份运行.
// 英文注释含义是"这里确实是void,没错.在startup程序(head.s)中就是这样假设的".参见head.h程序代码.
int main(void)										/* This really IS void, no error here. */
{													/* The startup routine assumes (well, ...) this */
    6870:	8d 4c 24 04          	lea    0x4(%esp),%ecx
    6874:	83 e4 f0             	and    $0xfffffff0,%esp
    6877:	ff 71 fc             	pushl  -0x4(%ecx)
    687a:	55                   	push   %ebp
    687b:	89 e5                	mov    %esp,%ebp
    687d:	53                   	push   %ebx
    687e:	51                   	push   %ecx
    687f:	e8 76 04 00 00       	call   6cfa <__x86.get_pc_thunk.bx>
    6884:	81 c3 7c b7 02 00    	add    $0x2b77c,%ebx
#ifdef EM
	// 开启仿真协处理器
	__asm__("movl %cr0,%eax \n\t" \
    688a:	0f 20 c0             	mov    %cr0,%eax
    688d:	83 f0 06             	xor    $0x6,%eax
    6890:	0f 22 c0             	mov    %eax,%cr0
	// 首先保存根文件系统设备和交换文件设备号,并根据setup.s程序中获取的信息设置控制台终端屏幕行,列数环境变量TERM,并用其设置初始init进程
	// 中执行etc/rc文件和shell程序使用的环境变量,以及复制内存0x90080处的硬盘表.
	// 其中ROOT_DEV已在前面包含进的include/linux/fs.h文件上被声明为extern_int
	// 而SWAP_DEV在include/linux/mm.h文件内也作了相同声明.这里mm.h文件并没有显式地列在本程序前部,因为前面包含进的include/linux/sched.h
	// 文件中已经含有它.
 	ROOT_DEV = ORIG_ROOT_DEV;										// ROOT_DEV定义在fs/super.c
    6893:	b8 fc 01 09 00       	mov    $0x901fc,%eax
    6898:	0f b7 00             	movzwl (%eax),%eax
    689b:	0f b7 d0             	movzwl %ax,%edx
    689e:	c7 c0 4c 61 03 00    	mov    $0x3614c,%eax
    68a4:	89 10                	mov    %edx,(%eax)
 	SWAP_DEV = ORIG_SWAP_DEV;										// SWAP_DEV定义在mm/swap.c
    68a6:	b8 fa 01 09 00       	mov    $0x901fa,%eax
    68ab:	0f b7 00             	movzwl (%eax),%eax
    68ae:	0f b7 d0             	movzwl %ax,%edx
    68b1:	c7 c0 20 52 03 00    	mov    $0x35220,%eax
    68b7:	89 10                	mov    %edx,(%eax)
   	sprintf(term, "TERM=con%dx%d", CON_COLS, CON_ROWS);
    68b9:	b8 0e 00 09 00       	mov    $0x9000e,%eax
    68be:	0f b7 00             	movzwl (%eax),%eax
    68c1:	0f b7 c0             	movzwl %ax,%eax
    68c4:	0f b6 d0             	movzbl %al,%edx
    68c7:	b8 0e 00 09 00       	mov    $0x9000e,%eax
    68cc:	0f b7 00             	movzwl (%eax),%eax
    68cf:	66 c1 e8 08          	shr    $0x8,%ax
    68d3:	0f b7 c0             	movzwl %ax,%eax
    68d6:	52                   	push   %edx
    68d7:	50                   	push   %eax
    68d8:	8d 83 27 40 ff ff    	lea    -0xbfd9(%ebx),%eax
    68de:	50                   	push   %eax
    68df:	8d 83 60 1b 00 00    	lea    0x1b60(%ebx),%eax
    68e5:	50                   	push   %eax
    68e6:	e8 10 fd ff ff       	call   65fb <sprintf>
    68eb:	83 c4 10             	add    $0x10,%esp
	envp[1] = term;
    68ee:	8d 83 60 1b 00 00    	lea    0x1b60(%ebx),%eax
    68f4:	89 83 40 00 00 00    	mov    %eax,0x40(%ebx)
	envp_rc[1] = term;
    68fa:	8d 83 60 1b 00 00    	lea    0x1b60(%ebx),%eax
    6900:	89 83 2c 00 00 00    	mov    %eax,0x2c(%ebx)
    drive_info = DRIVE_INFO;										// 复制内存0x90080处的硬盘参数表.
    6906:	ba 80 00 09 00       	mov    $0x90080,%edx
    690b:	c7 c0 a0 47 04 00    	mov    $0x447a0,%eax
    6911:	8b 0a                	mov    (%edx),%ecx
    6913:	89 08                	mov    %ecx,(%eax)
    6915:	8b 4a 04             	mov    0x4(%edx),%ecx
    6918:	89 48 04             	mov    %ecx,0x4(%eax)
    691b:	8b 4a 08             	mov    0x8(%edx),%ecx
    691e:	89 48 08             	mov    %ecx,0x8(%eax)
    6921:	8b 4a 0c             	mov    0xc(%edx),%ecx
    6924:	89 48 0c             	mov    %ecx,0xc(%eax)
    6927:	8b 4a 10             	mov    0x10(%edx),%ecx
    692a:	89 48 10             	mov    %ecx,0x10(%eax)
    692d:	8b 4a 14             	mov    0x14(%edx),%ecx
    6930:	89 48 14             	mov    %ecx,0x14(%eax)
    6933:	8b 4a 18             	mov    0x18(%edx),%ecx
    6936:	89 48 18             	mov    %ecx,0x18(%eax)
    6939:	8b 52 1c             	mov    0x1c(%edx),%edx
    693c:	89 50 1c             	mov    %edx,0x1c(%eax)

	// 接着根据机器物理内存容量设置高速缓冲区和主内存的位置和范围.
	// 高速缓存末端地址->buffer_memory_end;机器内存容量->memory_end;主内存开始地址->main_memory_start.
	// 设置物理内存大小
	memory_end = (1 << 20) + (EXT_MEM_K << 10);						// 内存大小=1MB + 扩展内存(k)*1024字节.
    693f:	b8 02 00 09 00       	mov    $0x90002,%eax
    6944:	0f b7 00             	movzwl (%eax),%eax
    6947:	0f b7 c0             	movzwl %ax,%eax
    694a:	c1 e0 0a             	shl    $0xa,%eax
    694d:	05 00 00 10 00       	add    $0x100000,%eax
    6952:	89 83 40 1b 00 00    	mov    %eax,0x1b40(%ebx)
	memory_end &= 0xfffff000;										// 忽略不到4KB(1页)的内存数.
    6958:	8b 83 40 1b 00 00    	mov    0x1b40(%ebx),%eax
    695e:	25 00 f0 ff ff       	and    $0xfffff000,%eax
    6963:	89 83 40 1b 00 00    	mov    %eax,0x1b40(%ebx)
	if (memory_end > 16 * 1024 * 1024)								// 如果内存量超过16MB,则按16MB计.
    6969:	8b 83 40 1b 00 00    	mov    0x1b40(%ebx),%eax
    696f:	3d 00 00 00 01       	cmp    $0x1000000,%eax
    6974:	7e 0a                	jle    6980 <main+0x110>
		memory_end = 16 * 1024 * 1024;
    6976:	c7 83 40 1b 00 00 00 	movl   $0x1000000,0x1b40(%ebx)
    697d:	00 00 01 
	// 根据物理内存的大小设置高速缓冲去的末端大小
	if (memory_end > 12 * 1024 * 1024) 								// 如果内存>12MB,则设置缓冲区末端=4MB
    6980:	8b 83 40 1b 00 00    	mov    0x1b40(%ebx),%eax
    6986:	3d 00 00 c0 00       	cmp    $0xc00000,%eax
    698b:	7e 0c                	jle    6999 <main+0x129>
		buffer_memory_end = 4 * 1024 * 1024;
    698d:	c7 83 44 1b 00 00 00 	movl   $0x400000,0x1b44(%ebx)
    6994:	00 40 00 
    6997:	eb 23                	jmp    69bc <main+0x14c>
	else if (memory_end > 6 * 1024 * 1024)							// 否则若内存>6MB,则设置缓冲区末端=2MB
    6999:	8b 83 40 1b 00 00    	mov    0x1b40(%ebx),%eax
    699f:	3d 00 00 60 00       	cmp    $0x600000,%eax
    69a4:	7e 0c                	jle    69b2 <main+0x142>
		buffer_memory_end = 2 * 1024 * 1024;
    69a6:	c7 83 44 1b 00 00 00 	movl   $0x200000,0x1b44(%ebx)
    69ad:	00 20 00 
    69b0:	eb 0a                	jmp    69bc <main+0x14c>
	else
		buffer_memory_end = 1 * 1024 * 1024;						// 否则则设置缓冲区末端=1MB
    69b2:	c7 83 44 1b 00 00 00 	movl   $0x100000,0x1b44(%ebx)
    69b9:	00 10 00 
	// 根据高速缓冲区的末端大小设置主内存区的起始地址
	main_memory_start = buffer_memory_end;							// 主内存起始位置 = 缓冲区末端
    69bc:	8b 83 44 1b 00 00    	mov    0x1b44(%ebx),%eax
    69c2:	89 83 48 1b 00 00    	mov    %eax,0x1b48(%ebx)
	// 参见kernel/blk_drv/ramdisk.c.
#ifdef RAMDISK
	main_memory_start += rd_init(main_memory_start, RAMDISK * 1024);
#endif
	// 以下是内核进行所有方面的初始化工作.
	mem_init(main_memory_start, memory_end);						// 主内存区初始化.(mm/memory.c)
    69c8:	8b 93 40 1b 00 00    	mov    0x1b40(%ebx),%edx
    69ce:	8b 83 48 1b 00 00    	mov    0x1b48(%ebx),%eax
    69d4:	83 ec 08             	sub    $0x8,%esp
    69d7:	52                   	push   %edx
    69d8:	50                   	push   %eax
    69d9:	e8 ae 6d 00 00       	call   d78c <mem_init>
    69de:	83 c4 10             	add    $0x10,%esp
	trap_init();                                    				// 陷阱门(硬件中断向量)初始化.(kernel/traps.c)
    69e1:	e8 21 1a 00 00       	call   8407 <trap_init>
	blk_dev_init();													// 块设备初始化.(blk_drv/ll_rw_blk.c)
    69e6:	e8 ee 1a 01 00       	call   184d9 <blk_dev_init>
	chr_dev_init();													// 字符设备初始化.(chr_drv/tty_io.c)
    69eb:	e8 96 52 01 00       	call   1bc86 <chr_dev_init>
 	tty_init();														// tty初始化(chr_drv/tty_io.c)
    69f0:	e8 9d 52 01 00       	call   1bc92 <tty_init>
	time_init();													// 设置开机启动时间.
    69f5:	e8 41 fc ff ff       	call   663b <time_init>
 	sched_init();													// 调度程序初始化(加载任务0的tr,ldtr)(kernel/sched.c)
    69fa:	e8 e6 0f 00 00       	call   79e5 <sched_init>
	buffer_init(buffer_memory_end);									// 缓冲管理初始化,建内存链表等.(fs/buffer.c)
    69ff:	8b 83 44 1b 00 00    	mov    0x1b44(%ebx),%eax
    6a05:	83 ec 0c             	sub    $0xc,%esp
    6a08:	50                   	push   %eax
    6a09:	e8 a8 a2 00 00       	call   10cb6 <buffer_init>
    6a0e:	83 c4 10             	add    $0x10,%esp
	hd_init();														// 硬盘初始化.	(blk_drv/hd.c)
    6a11:	e8 f6 39 01 00       	call   1a40c <hd_init>
	floppy_init();													// 软驱初始化.	(blk_drv/floppy.c)
    6a16:	e8 6d 29 01 00       	call   19388 <floppy_init>
	sti();															// 所有初始化工作都完了,于是开启中断.
    6a1b:	fb                   	sti    
	// 打印内核初始化完毕
	Log(LOG_INFO_TYPE, "<<<<< Linux0.12 Kernel Init Finished, Ready Start Process0 >>>>>\n");
    6a1c:	83 ec 08             	sub    $0x8,%esp
    6a1f:	8d 83 38 40 ff ff    	lea    -0xbfc8(%ebx),%eax
    6a25:	50                   	push   %eax
    6a26:	6a 00                	push   $0x0
    6a28:	e8 72 f1 01 00       	call   25b9f <Log>
    6a2d:	83 c4 10             	add    $0x10,%esp
	// 下面过程通过在堆栈中设置的参数,利用中断返回指令启动任务0执行.
	move_to_user_mode();											// 移到用户模式下执行.(include/asm/system.h)
    6a30:	89 e0                	mov    %esp,%eax
    6a32:	6a 17                	push   $0x17
    6a34:	50                   	push   %eax
    6a35:	9c                   	pushf  
    6a36:	6a 0f                	push   $0xf
    6a38:	68 3e 6a 00 00       	push   $0x6a3e
    6a3d:	cf                   	iret   
    6a3e:	b8 17 00 00 00       	mov    $0x17,%eax
    6a43:	8e d8                	mov    %eax,%ds
    6a45:	8e c0                	mov    %eax,%es
    6a47:	8e e0                	mov    %eax,%fs
    6a49:	8e e8                	mov    %eax,%gs
	if (!fork_for_process0()) {										/* we count on this going ok */
    6a4b:	e8 6c fb ff ff       	call   65bc <fork_for_process0>
    6a50:	85 c0                	test   %eax,%eax
    6a52:	75 05                	jne    6a59 <main+0x1e9>
		init();														// 在新建的子进程(任务1即init进程)中执行.
    6a54:	e8 60 00 00 00       	call   6ab9 <init>
	 * 我们就回到这里,一直循环执行'pause()'.
	 */
	// pause()系统调用(kernel/sched.c)会把任务0转换成可中断等待状态,再执行调度函数.但是调度函数只要发现系统中没有其他任务可以运行时就会切换
	// 到任务0,是不信赖于任务0的状态.
	for(;;)
		__asm__("int $0x80"::"a" (__NR_pause):);					// 即执行系统调用pause().
    6a59:	b8 1d 00 00 00       	mov    $0x1d,%eax
    6a5e:	cd 80                	int    $0x80
    6a60:	eb f7                	jmp    6a59 <main+0x1e9>

00006a62 <printf>:

// 下面函数产生格式化信息并输出到标准输出设备stdout(1),这里是指屏幕上显示.参数'*fmt'指定输出将采用的格式,参见标准C语言书籍.
// 该子程序正好是vsprintf如何使用的一个简单例子.该程序使用vsprintf()将格式化的字符串放入printbuf缓冲区,然后用write()将
// 缓冲区的内容输出到标准设备(1--stdout).vsprintf()函数的实现见kernel/vsprintf.c.
int printf(const char *fmt, ...)
{
    6a62:	53                   	push   %ebx
    6a63:	83 ec 18             	sub    $0x18,%esp
    6a66:	e8 8f 02 00 00       	call   6cfa <__x86.get_pc_thunk.bx>
    6a6b:	81 c3 95 b5 02 00    	add    $0x2b595,%ebx
	va_list args;
	int i;

	va_start(args, fmt);
    6a71:	8d 44 24 24          	lea    0x24(%esp),%eax
    6a75:	89 44 24 0c          	mov    %eax,0xc(%esp)
	write(1, printbuf, i = vsprintf(printbuf, fmt, args));
    6a79:	8b 44 24 20          	mov    0x20(%esp),%eax
    6a7d:	83 ec 04             	sub    $0x4,%esp
    6a80:	ff 74 24 10          	pushl  0x10(%esp)
    6a84:	50                   	push   %eax
    6a85:	8d 83 40 17 00 00    	lea    0x1740(%ebx),%eax
    6a8b:	50                   	push   %eax
    6a8c:	e8 04 2c 00 00       	call   9695 <vsprintf>
    6a91:	83 c4 10             	add    $0x10,%esp
    6a94:	89 44 24 08          	mov    %eax,0x8(%esp)
    6a98:	83 ec 04             	sub    $0x4,%esp
    6a9b:	ff 74 24 0c          	pushl  0xc(%esp)
    6a9f:	8d 83 40 17 00 00    	lea    0x1740(%ebx),%eax
    6aa5:	50                   	push   %eax
    6aa6:	6a 01                	push   $0x1
    6aa8:	e8 64 ef 01 00       	call   25a11 <write>
    6aad:	83 c4 10             	add    $0x10,%esp
	va_end(args);
	return i;
    6ab0:	8b 44 24 08          	mov    0x8(%esp),%eax
}
    6ab4:	83 c4 18             	add    $0x18,%esp
    6ab7:	5b                   	pop    %ebx
    6ab8:	c3                   	ret    

00006ab9 <init>:

// 在main()中已经进行子系统初始化,包括内存管理,各种硬件设备和驱动程序.init()函数在任务0第1次创建的子进程(任务1)中.它首先对第一个将要执行
// 的程序(shell)的环境进行初始化,然后以登录shell方式加载程序并执行之.
void init(void)
{
    6ab9:	53                   	push   %ebx
    6aba:	83 ec 18             	sub    $0x18,%esp
    6abd:	e8 38 02 00 00       	call   6cfa <__x86.get_pc_thunk.bx>
    6ac2:	81 c3 3e b5 02 00    	add    $0x2b53e,%ebx
	int pid, i, fd;
	// setup()是一个系统调用.用于读取硬盘参数和分区表信息并加载虚拟盘(若存在的话)和安装根文件系统设备.该函数用25行上的宏定义,对就函数是sys_setup(),
	// 在块设备子目录kernel/blk_drv/hd.c.
	setup((void *) &drive_info);
    6ac8:	c7 c0 a0 47 04 00    	mov    $0x447a0,%eax
    6ace:	50                   	push   %eax
    6acf:	e8 62 fa ff ff       	call   6536 <setup>
    6ad4:	83 c4 04             	add    $0x4,%esp
	// 下面以读写访问方式打开设备"/dev/tty0",它对应终端控制台.由于这是第一次打开文件操作,因此产生的文件句柄号(文件描述符)肯定是0.该句柄是UNIX类操作
	// 系统默认的控制台标准输入句柄stdin.这里再把它以读和写的方式分别打开是为了复制产生标准输出(写)句柄stdout和标准出错输出句柄stderr.函数前面的"(void)"
	// 前缀用于表示强制函数无需返回值.
	(void) open("/dev/tty1", O_RDWR, 0);
    6ad7:	83 ec 04             	sub    $0x4,%esp
    6ada:	6a 00                	push   $0x0
    6adc:	6a 02                	push   $0x2
    6ade:	8d 83 7a 40 ff ff    	lea    -0xbf86(%ebx),%eax
    6ae4:	50                   	push   %eax
    6ae5:	e8 87 ee 01 00       	call   25971 <open>
    6aea:	83 c4 10             	add    $0x10,%esp
	(void) dup(0);													// 复制句柄,产生句柄1号--stdout标准输出设备.
    6aed:	83 ec 0c             	sub    $0xc,%esp
    6af0:	6a 00                	push   $0x0
    6af2:	e8 69 ef 01 00       	call   25a60 <dup>
    6af7:	83 c4 10             	add    $0x10,%esp
	(void) dup(0);													// 复制句柄,产生句柄2号--stderr标准出错输出设备.
    6afa:	83 ec 0c             	sub    $0xc,%esp
    6afd:	6a 00                	push   $0x0
    6aff:	e8 5c ef 01 00       	call   25a60 <dup>
    6b04:	83 c4 10             	add    $0x10,%esp
	// 进程1执行的用户级代码的开始
	printf("<<<<< Process 1 console fd = %d >>>>>\n", fd);
    6b07:	83 ec 08             	sub    $0x8,%esp
    6b0a:	ff 74 24 14          	pushl  0x14(%esp)
    6b0e:	8d 83 84 40 ff ff    	lea    -0xbf7c(%ebx),%eax
    6b14:	50                   	push   %eax
    6b15:	e8 48 ff ff ff       	call   6a62 <printf>
    6b1a:	83 c4 10             	add    $0x10,%esp
	// 下面打印缓冲区块数和总字节数,每块1024字节,以及主内存区空闲内存字节数.
	printf("<<<<< %d buffers = %d bytes buffer space >>>>>\n\r", NR_BUFFERS,
    6b1d:	c7 c0 40 61 03 00    	mov    $0x36140,%eax
    6b23:	8b 00                	mov    (%eax),%eax
    6b25:	c1 e0 0a             	shl    $0xa,%eax
    6b28:	89 c2                	mov    %eax,%edx
    6b2a:	c7 c0 40 61 03 00    	mov    $0x36140,%eax
    6b30:	8b 00                	mov    (%eax),%eax
    6b32:	83 ec 04             	sub    $0x4,%esp
    6b35:	52                   	push   %edx
    6b36:	50                   	push   %eax
    6b37:	8d 83 ac 40 ff ff    	lea    -0xbf54(%ebx),%eax
    6b3d:	50                   	push   %eax
    6b3e:	e8 1f ff ff ff       	call   6a62 <printf>
    6b43:	83 c4 10             	add    $0x10,%esp
			NR_BUFFERS * BLOCK_SIZE);
	printf("<<<<< Free mem: %d bytes >>>>>\n\r", memory_end - main_memory_start);
    6b46:	8b 93 40 1b 00 00    	mov    0x1b40(%ebx),%edx
    6b4c:	8b 83 48 1b 00 00    	mov    0x1b48(%ebx),%eax
    6b52:	29 c2                	sub    %eax,%edx
    6b54:	89 d0                	mov    %edx,%eax
    6b56:	83 ec 08             	sub    $0x8,%esp
    6b59:	50                   	push   %eax
    6b5a:	8d 83 e0 40 ff ff    	lea    -0xbf20(%ebx),%eax
    6b60:	50                   	push   %eax
    6b61:	e8 fc fe ff ff       	call   6a62 <printf>
    6b66:	83 c4 10             	add    $0x10,%esp
	// 下面fork()用于创建一个子进程(任务2).对于被创建的子进程,fork()将返回0值,对于原进程(父进程)则返回子进程的进程号pid.所以第202--206行是子进程执行的内容.
	// 该子进程关闭了句柄0(stdin),以只读方式打开/etc/rc文件,并使用execve()函数将进程自身替换成/bin/sh程序(即shell程序),然后执行/bin/sh程序.所携带的参数
	// 和环境变量分别由argv_rc和envp_rc数组给出.关闭句柄0并立刻打开/etc/rc文件的作用是把标准输入stdin重定向到/etc/rc/文件.这样shell程序/bin/sh就可以运行
	// rc文件中设置的命令.由于这里sh的运行方式是非交互式的,因此在执行完rc文件中的命令后就会立刻退出,进程2也随之结束.并于execve()函数说明请参见fs/exec.c程序.
	// 函数_exit()退出时的出错码1 - 操作未许可;2 -- 文件或目录不存在.
	if (!(pid = fork())) {
    6b69:	e8 4a f9 ff ff       	call   64b8 <fork>
    6b6e:	89 44 24 08          	mov    %eax,0x8(%esp)
    6b72:	83 7c 24 08 00       	cmpl   $0x0,0x8(%esp)
    6b77:	75 61                	jne    6bda <init+0x121>
		close(0);
    6b79:	83 ec 0c             	sub    $0xc,%esp
    6b7c:	6a 00                	push   $0x0
    6b7e:	e8 47 ee 01 00       	call   259ca <close>
    6b83:	83 c4 10             	add    $0x10,%esp
		if (open("/etc/rc", O_RDONLY, 0))
    6b86:	83 ec 04             	sub    $0x4,%esp
    6b89:	6a 00                	push   $0x0
    6b8b:	6a 00                	push   $0x0
    6b8d:	8d 83 01 41 ff ff    	lea    -0xbeff(%ebx),%eax
    6b93:	50                   	push   %eax
    6b94:	e8 d8 ed 01 00       	call   25971 <open>
    6b99:	83 c4 10             	add    $0x10,%esp
    6b9c:	85 c0                	test   %eax,%eax
    6b9e:	74 0d                	je     6bad <init+0xf4>
			_exit(1);												// 若打开文件失败,则退出(lib/_exit.c).
    6ba0:	83 ec 0c             	sub    $0xc,%esp
    6ba3:	6a 01                	push   $0x1
    6ba5:	e8 ac ed 01 00       	call   25956 <_exit>
    6baa:	83 c4 10             	add    $0x10,%esp
		execve("/bin/sh", argv_rc, envp_rc);						// 替换成/bin/sh程序并执行.
    6bad:	83 ec 04             	sub    $0x4,%esp
    6bb0:	8d 83 28 00 00 00    	lea    0x28(%ebx),%eax
    6bb6:	50                   	push   %eax
    6bb7:	8d 83 20 00 00 00    	lea    0x20(%ebx),%eax
    6bbd:	50                   	push   %eax
    6bbe:	8d 83 00 40 ff ff    	lea    -0xc000(%ebx),%eax
    6bc4:	50                   	push   %eax
    6bc5:	e8 1c ef 01 00       	call   25ae6 <execve>
    6bca:	83 c4 10             	add    $0x10,%esp
		_exit(2);													// 若execve()执行失败则退出.
    6bcd:	83 ec 0c             	sub    $0xc,%esp
    6bd0:	6a 02                	push   $0x2
    6bd2:	e8 7f ed 01 00       	call   25956 <_exit>
    6bd7:	83 c4 10             	add    $0x10,%esp
    }
	// 下面还是父进程（1）执行的语句。wait()等待子进程停止或终止，返回值应是子进程的进程号（pid)。这三句的作用是父进程等待子进程
	// 的结束。&i是存放返回状态信息的位置。如果wait()返回值不等于子进程号，则继续等待。
  	if (pid > 0)
    6bda:	83 7c 24 08 00       	cmpl   $0x0,0x8(%esp)
    6bdf:	7e 17                	jle    6bf8 <init+0x13f>
		while (pid != wait(&i));
    6be1:	90                   	nop
    6be2:	83 ec 0c             	sub    $0xc,%esp
    6be5:	8d 44 24 10          	lea    0x10(%esp),%eax
    6be9:	50                   	push   %eax
    6bea:	e8 95 ef 01 00       	call   25b84 <wait>
    6bef:	83 c4 10             	add    $0x10,%esp
    6bf2:	39 44 24 08          	cmp    %eax,0x8(%esp)
    6bf6:	75 ea                	jne    6be2 <init+0x129>
	// 失败”信息并继续执行。对于所创建的子进程将关闭所有以前还遗留的句柄（stdin、stdout、stderr），新创建一个会话并设置进程组号，
	// 然后重新打开/dev/tty0作为stdin，并复制成stdout和stderr。再次执行系统解释程序/bin/sh。但这次执行所选用的参数和环境数组另
	// 选了一套。然后父进程再次运行wait()等等。如果子进程又停止了执行，则在标准输出上显示出错信息“子进程pid停止了运行，返回码是i”，
	// 然后继续重试下去...，形成“大”死循环。
	while (1) {
		if ((pid = fork()) < 0) {
    6bf8:	e8 bb f8 ff ff       	call   64b8 <fork>
    6bfd:	89 44 24 08          	mov    %eax,0x8(%esp)
    6c01:	83 7c 24 08 00       	cmpl   $0x0,0x8(%esp)
    6c06:	79 19                	jns    6c21 <init+0x168>
			printf("Fork failed in init %c\r\n", ' ');
    6c08:	83 ec 08             	sub    $0x8,%esp
    6c0b:	6a 20                	push   $0x20
    6c0d:	8d 83 09 41 ff ff    	lea    -0xbef7(%ebx),%eax
    6c13:	50                   	push   %eax
    6c14:	e8 49 fe ff ff       	call   6a62 <printf>
    6c19:	83 c4 10             	add    $0x10,%esp
			continue;
    6c1c:	e9 cc 00 00 00       	jmp    6ced <init+0x234>
		}
		if (!pid) {                             					// 新的子进程。
    6c21:	83 7c 24 08 00       	cmpl   $0x0,0x8(%esp)
    6c26:	0f 85 88 00 00 00    	jne    6cb4 <init+0x1fb>
			close(0); close(1); close(2);
    6c2c:	83 ec 0c             	sub    $0xc,%esp
    6c2f:	6a 00                	push   $0x0
    6c31:	e8 94 ed 01 00       	call   259ca <close>
    6c36:	83 c4 10             	add    $0x10,%esp
    6c39:	83 ec 0c             	sub    $0xc,%esp
    6c3c:	6a 01                	push   $0x1
    6c3e:	e8 87 ed 01 00       	call   259ca <close>
    6c43:	83 c4 10             	add    $0x10,%esp
    6c46:	83 ec 0c             	sub    $0xc,%esp
    6c49:	6a 02                	push   $0x2
    6c4b:	e8 7a ed 01 00       	call   259ca <close>
    6c50:	83 c4 10             	add    $0x10,%esp
			setsid();                       						// 创建一新的会话期，见后面说明。
    6c53:	e8 4f ee 01 00       	call   25aa7 <setsid>
			(void) open("/dev/tty1", O_RDWR, 0);
    6c58:	83 ec 04             	sub    $0x4,%esp
    6c5b:	6a 00                	push   $0x0
    6c5d:	6a 02                	push   $0x2
    6c5f:	8d 83 7a 40 ff ff    	lea    -0xbf86(%ebx),%eax
    6c65:	50                   	push   %eax
    6c66:	e8 06 ed 01 00       	call   25971 <open>
    6c6b:	83 c4 10             	add    $0x10,%esp
			(void) dup(0);
    6c6e:	83 ec 0c             	sub    $0xc,%esp
    6c71:	6a 00                	push   $0x0
    6c73:	e8 e8 ed 01 00       	call   25a60 <dup>
    6c78:	83 c4 10             	add    $0x10,%esp
			(void) dup(0);
    6c7b:	83 ec 0c             	sub    $0xc,%esp
    6c7e:	6a 00                	push   $0x0
    6c80:	e8 db ed 01 00       	call   25a60 <dup>
    6c85:	83 c4 10             	add    $0x10,%esp
			_exit(execve("/bin/sh", argv, envp));
    6c88:	83 ec 04             	sub    $0x4,%esp
    6c8b:	8d 83 3c 00 00 00    	lea    0x3c(%ebx),%eax
    6c91:	50                   	push   %eax
    6c92:	8d 83 34 00 00 00    	lea    0x34(%ebx),%eax
    6c98:	50                   	push   %eax
    6c99:	8d 83 00 40 ff ff    	lea    -0xc000(%ebx),%eax
    6c9f:	50                   	push   %eax
    6ca0:	e8 41 ee 01 00       	call   25ae6 <execve>
    6ca5:	83 c4 10             	add    $0x10,%esp
    6ca8:	83 ec 0c             	sub    $0xc,%esp
    6cab:	50                   	push   %eax
    6cac:	e8 a5 ec 01 00       	call   25956 <_exit>
    6cb1:	83 c4 10             	add    $0x10,%esp
		}
		while (1)
			if (pid == wait(&i))
    6cb4:	83 ec 0c             	sub    $0xc,%esp
    6cb7:	8d 44 24 10          	lea    0x10(%esp),%eax
    6cbb:	50                   	push   %eax
    6cbc:	e8 c3 ee 01 00       	call   25b84 <wait>
    6cc1:	83 c4 10             	add    $0x10,%esp
    6cc4:	39 44 24 08          	cmp    %eax,0x8(%esp)
    6cc8:	74 02                	je     6ccc <init+0x213>
    6cca:	eb e8                	jmp    6cb4 <init+0x1fb>
				break;
    6ccc:	90                   	nop
		printf("\n\rchild %d died with code %04x\n\r", pid, i);
    6ccd:	8b 44 24 04          	mov    0x4(%esp),%eax
    6cd1:	83 ec 04             	sub    $0x4,%esp
    6cd4:	50                   	push   %eax
    6cd5:	ff 74 24 10          	pushl  0x10(%esp)
    6cd9:	8d 83 24 41 ff ff    	lea    -0xbedc(%ebx),%eax
    6cdf:	50                   	push   %eax
    6ce0:	e8 7d fd ff ff       	call   6a62 <printf>
    6ce5:	83 c4 10             	add    $0x10,%esp
		sync();
    6ce8:	e8 90 f8 ff ff       	call   657d <sync>
		if ((pid = fork()) < 0) {
    6ced:	e9 06 ff ff ff       	jmp    6bf8 <init+0x13f>

00006cf2 <__x86.get_pc_thunk.ax>:
    6cf2:	8b 04 24             	mov    (%esp),%eax
    6cf5:	c3                   	ret    

00006cf6 <__x86.get_pc_thunk.dx>:
    6cf6:	8b 14 24             	mov    (%esp),%edx
    6cf9:	c3                   	ret    

00006cfa <__x86.get_pc_thunk.bx>:
    6cfa:	8b 1c 24             	mov    (%esp),%ebx
    6cfd:	c3                   	ret    
    6cfe:	66 90                	xchg   %ax,%ax

00006d00 <show_task>:
// 除了SIGKILL和SIGSTOP信号以外其他信号都是可阻塞的.
#define _BLOCKABLE (~(_S(SIGKILL) | _S(SIGSTOP)))

// 内核调试函数.显示任务号nr的进程号,进程状态和内核堆栈空闲字节数(大约).
void show_task(int nr, struct task_struct * p)
{
    6d00:	56                   	push   %esi
    6d01:	53                   	push   %ebx
    6d02:	83 ec 14             	sub    $0x14,%esp
    6d05:	e8 f0 ff ff ff       	call   6cfa <__x86.get_pc_thunk.bx>
    6d0a:	81 c3 f6 b2 02 00    	add    $0x2b2f6,%ebx
	int i, j = 4096 - sizeof(struct task_struct);
    6d10:	c7 44 24 08 7c 0b 00 	movl   $0xb7c,0x8(%esp)
    6d17:	00 

	printk("%d: pid=%d, state=%d, father=%d, child=%d, ", nr, p->pid,
		p->state, p->p_pptr->pid, p->p_cptr ? p->p_cptr->pid : -1);
    6d18:	8b 44 24 24          	mov    0x24(%esp),%eax
    6d1c:	8b 80 c0 02 00 00    	mov    0x2c0(%eax),%eax
	printk("%d: pid=%d, state=%d, father=%d, child=%d, ", nr, p->pid,
    6d22:	85 c0                	test   %eax,%eax
    6d24:	74 12                	je     6d38 <show_task+0x38>
		p->state, p->p_pptr->pid, p->p_cptr ? p->p_cptr->pid : -1);
    6d26:	8b 44 24 24          	mov    0x24(%esp),%eax
    6d2a:	8b 80 c0 02 00 00    	mov    0x2c0(%eax),%eax
	printk("%d: pid=%d, state=%d, father=%d, child=%d, ", nr, p->pid,
    6d30:	8b 80 2c 02 00 00    	mov    0x22c(%eax),%eax
    6d36:	eb 05                	jmp    6d3d <show_task+0x3d>
    6d38:	b8 ff ff ff ff       	mov    $0xffffffff,%eax
		p->state, p->p_pptr->pid, p->p_cptr ? p->p_cptr->pid : -1);
    6d3d:	8b 54 24 24          	mov    0x24(%esp),%edx
    6d41:	8b 92 bc 02 00 00    	mov    0x2bc(%edx),%edx
	printk("%d: pid=%d, state=%d, father=%d, child=%d, ", nr, p->pid,
    6d47:	8b b2 2c 02 00 00    	mov    0x22c(%edx),%esi
    6d4d:	8b 54 24 24          	mov    0x24(%esp),%edx
    6d51:	8b 0a                	mov    (%edx),%ecx
    6d53:	8b 54 24 24          	mov    0x24(%esp),%edx
    6d57:	8b 92 2c 02 00 00    	mov    0x22c(%edx),%edx
    6d5d:	83 ec 08             	sub    $0x8,%esp
    6d60:	50                   	push   %eax
    6d61:	56                   	push   %esi
    6d62:	51                   	push   %ecx
    6d63:	52                   	push   %edx
    6d64:	ff 74 24 38          	pushl  0x38(%esp)
    6d68:	8d 83 48 41 ff ff    	lea    -0xbeb8(%ebx),%eax
    6d6e:	50                   	push   %eax
    6d6f:	e8 be 25 00 00       	call   9332 <printk>
    6d74:	83 c4 20             	add    $0x20,%esp
	i = 0;
    6d77:	c7 44 24 0c 00 00 00 	movl   $0x0,0xc(%esp)
    6d7e:	00 
	while (i < j && !((char *)(p + 1))[i])				// 检测指定任务数据结构以后等于0的字节数.
    6d7f:	eb 05                	jmp    6d86 <show_task+0x86>
		i++;
    6d81:	83 44 24 0c 01       	addl   $0x1,0xc(%esp)
	while (i < j && !((char *)(p + 1))[i])				// 检测指定任务数据结构以后等于0的字节数.
    6d86:	8b 44 24 0c          	mov    0xc(%esp),%eax
    6d8a:	3b 44 24 08          	cmp    0x8(%esp),%eax
    6d8e:	7d 17                	jge    6da7 <show_task+0xa7>
    6d90:	8b 44 24 24          	mov    0x24(%esp),%eax
    6d94:	8d 90 84 04 00 00    	lea    0x484(%eax),%edx
    6d9a:	8b 44 24 0c          	mov    0xc(%esp),%eax
    6d9e:	01 d0                	add    %edx,%eax
    6da0:	0f b6 00             	movzbl (%eax),%eax
    6da3:	84 c0                	test   %al,%al
    6da5:	74 da                	je     6d81 <show_task+0x81>
	printk("%d/%d chars free in kstack\n\r", i, j);
    6da7:	83 ec 04             	sub    $0x4,%esp
    6daa:	ff 74 24 0c          	pushl  0xc(%esp)
    6dae:	ff 74 24 14          	pushl  0x14(%esp)
    6db2:	8d 83 74 41 ff ff    	lea    -0xbe8c(%ebx),%eax
    6db8:	50                   	push   %eax
    6db9:	e8 74 25 00 00       	call   9332 <printk>
    6dbe:	83 c4 10             	add    $0x10,%esp
	printk("   PC=%08X.", *(1019 + (unsigned long *) p));
    6dc1:	8b 44 24 24          	mov    0x24(%esp),%eax
    6dc5:	05 ec 0f 00 00       	add    $0xfec,%eax
    6dca:	8b 00                	mov    (%eax),%eax
    6dcc:	83 ec 08             	sub    $0x8,%esp
    6dcf:	50                   	push   %eax
    6dd0:	8d 83 91 41 ff ff    	lea    -0xbe6f(%ebx),%eax
    6dd6:	50                   	push   %eax
    6dd7:	e8 56 25 00 00       	call   9332 <printk>
    6ddc:	83 c4 10             	add    $0x10,%esp
	if (p->p_ysptr || p->p_osptr)
    6ddf:	8b 44 24 24          	mov    0x24(%esp),%eax
    6de3:	8b 80 c4 02 00 00    	mov    0x2c4(%eax),%eax
    6de9:	85 c0                	test   %eax,%eax
    6deb:	75 0e                	jne    6dfb <show_task+0xfb>
    6ded:	8b 44 24 24          	mov    0x24(%esp),%eax
    6df1:	8b 80 c8 02 00 00    	mov    0x2c8(%eax),%eax
    6df7:	85 c0                	test   %eax,%eax
    6df9:	74 60                	je     6e5b <show_task+0x15b>
		printk("   Younger sib=%d, older sib=%d\n\r",
			p->p_ysptr ? p->p_ysptr->pid : -1,
			p->p_osptr ? p->p_osptr->pid : -1);
    6dfb:	8b 44 24 24          	mov    0x24(%esp),%eax
    6dff:	8b 80 c8 02 00 00    	mov    0x2c8(%eax),%eax
		printk("   Younger sib=%d, older sib=%d\n\r",
    6e05:	85 c0                	test   %eax,%eax
    6e07:	74 12                	je     6e1b <show_task+0x11b>
			p->p_osptr ? p->p_osptr->pid : -1);
    6e09:	8b 44 24 24          	mov    0x24(%esp),%eax
    6e0d:	8b 80 c8 02 00 00    	mov    0x2c8(%eax),%eax
		printk("   Younger sib=%d, older sib=%d\n\r",
    6e13:	8b 90 2c 02 00 00    	mov    0x22c(%eax),%edx
    6e19:	eb 05                	jmp    6e20 <show_task+0x120>
    6e1b:	ba ff ff ff ff       	mov    $0xffffffff,%edx
			p->p_ysptr ? p->p_ysptr->pid : -1,
    6e20:	8b 44 24 24          	mov    0x24(%esp),%eax
    6e24:	8b 80 c4 02 00 00    	mov    0x2c4(%eax),%eax
		printk("   Younger sib=%d, older sib=%d\n\r",
    6e2a:	85 c0                	test   %eax,%eax
    6e2c:	74 12                	je     6e40 <show_task+0x140>
			p->p_ysptr ? p->p_ysptr->pid : -1,
    6e2e:	8b 44 24 24          	mov    0x24(%esp),%eax
    6e32:	8b 80 c4 02 00 00    	mov    0x2c4(%eax),%eax
		printk("   Younger sib=%d, older sib=%d\n\r",
    6e38:	8b 80 2c 02 00 00    	mov    0x22c(%eax),%eax
    6e3e:	eb 05                	jmp    6e45 <show_task+0x145>
    6e40:	b8 ff ff ff ff       	mov    $0xffffffff,%eax
    6e45:	83 ec 04             	sub    $0x4,%esp
    6e48:	52                   	push   %edx
    6e49:	50                   	push   %eax
    6e4a:	8d 83 a0 41 ff ff    	lea    -0xbe60(%ebx),%eax
    6e50:	50                   	push   %eax
    6e51:	e8 dc 24 00 00       	call   9332 <printk>
    6e56:	83 c4 10             	add    $0x10,%esp
    6e59:	eb 12                	jmp    6e6d <show_task+0x16d>
	else
		printk("\n\r");
    6e5b:	83 ec 0c             	sub    $0xc,%esp
    6e5e:	8d 83 c2 41 ff ff    	lea    -0xbe3e(%ebx),%eax
    6e64:	50                   	push   %eax
    6e65:	e8 c8 24 00 00       	call   9332 <printk>
    6e6a:	83 c4 10             	add    $0x10,%esp
}
    6e6d:	90                   	nop
    6e6e:	83 c4 14             	add    $0x14,%esp
    6e71:	5b                   	pop    %ebx
    6e72:	5e                   	pop    %esi
    6e73:	c3                   	ret    

00006e74 <show_state>:

// 显示所有任务的任务号,进程号,进程状态和内核堆栈空闲字节数(大约).
// NR_TASKS是系统能容纳的最大进程(任务)数量(64个),定义在include/kernel/sched.h
void show_state(void)
{
    6e74:	53                   	push   %ebx
    6e75:	83 ec 18             	sub    $0x18,%esp
    6e78:	e8 7d fe ff ff       	call   6cfa <__x86.get_pc_thunk.bx>
    6e7d:	81 c3 83 b1 02 00    	add    $0x2b183,%ebx
	int i;

	printk("\rTask-info:\n\r");
    6e83:	83 ec 0c             	sub    $0xc,%esp
    6e86:	8d 83 c5 41 ff ff    	lea    -0xbe3b(%ebx),%eax
    6e8c:	50                   	push   %eax
    6e8d:	e8 a0 24 00 00       	call   9332 <printk>
    6e92:	83 c4 10             	add    $0x10,%esp
	for (i = 0; i < NR_TASKS; i++)
    6e95:	c7 44 24 0c 00 00 00 	movl   $0x0,0xc(%esp)
    6e9c:	00 
    6e9d:	eb 2f                	jmp    6ece <show_state+0x5a>
		if (task[i])
    6e9f:	8b 44 24 0c          	mov    0xc(%esp),%eax
    6ea3:	8b 84 83 a0 12 00 00 	mov    0x12a0(%ebx,%eax,4),%eax
    6eaa:	85 c0                	test   %eax,%eax
    6eac:	74 1b                	je     6ec9 <show_state+0x55>
			show_task(i, task[i]);
    6eae:	8b 44 24 0c          	mov    0xc(%esp),%eax
    6eb2:	8b 84 83 a0 12 00 00 	mov    0x12a0(%ebx,%eax,4),%eax
    6eb9:	83 ec 08             	sub    $0x8,%esp
    6ebc:	50                   	push   %eax
    6ebd:	ff 74 24 18          	pushl  0x18(%esp)
    6ec1:	e8 3a fe ff ff       	call   6d00 <show_task>
    6ec6:	83 c4 10             	add    $0x10,%esp
	for (i = 0; i < NR_TASKS; i++)
    6ec9:	83 44 24 0c 01       	addl   $0x1,0xc(%esp)
    6ece:	83 7c 24 0c 3f       	cmpl   $0x3f,0xc(%esp)
    6ed3:	7e ca                	jle    6e9f <show_state+0x2b>
}
    6ed5:	90                   	nop
    6ed6:	83 c4 18             	add    $0x18,%esp
    6ed9:	5b                   	pop    %ebx
    6eda:	c3                   	ret    

00006edb <math_state_restore>:
/*
 * 将当前协处理器内容保存到老协处理器状态数组中,并将当前任务的协处理器内容加载进协处理器.
 */
// 当任务被调度交换过以后,该函数用以保存原任务的协处理器状态(上下文)并恢复新调度进来的当前任务的协处理器执行状态.
void math_state_restore()
{
    6edb:	e8 12 fe ff ff       	call   6cf2 <__x86.get_pc_thunk.ax>
    6ee0:	05 20 b1 02 00       	add    $0x2b120,%eax
	// 如果任务没变则返回(上一个任务就是当前任务).这里"上一个任务"是指刚被交换出去的任务.
	if (last_task_used_math == current)
    6ee5:	8b 88 8c 1b 00 00    	mov    0x1b8c(%eax),%ecx
    6eeb:	8b 90 80 12 00 00    	mov    0x1280(%eax),%edx
    6ef1:	39 d1                	cmp    %edx,%ecx
    6ef3:	74 54                	je     6f49 <math_state_restore+0x6e>
		return;
	// 在发送协处理器命令之前要先必WAIT指令.如果上个任务使用了协处理器,则保存其状态.
	__asm__("fwait");
    6ef5:	9b                   	fwait
	if (last_task_used_math) {
    6ef6:	8b 90 8c 1b 00 00    	mov    0x1b8c(%eax),%edx
    6efc:	85 d2                	test   %edx,%edx
    6efe:	74 0c                	je     6f0c <math_state_restore+0x31>
		__asm__("fnsave %0"::"m" (last_task_used_math->tss.i387));
    6f00:	8b 90 8c 1b 00 00    	mov    0x1b8c(%eax),%edx
    6f06:	dd b2 18 04 00 00    	fnsave 0x418(%edx)
	}
	// 现在,las_task_used_math指向当前任务,以备当前任务被交换出去时使用.此时如果当前任务用过协处理器,则恢复其状态.否则的话说明是第一次使用,
	// 于是就向协处理器发初始化命令,并设置使用协处理器标志.
	last_task_used_math = current;
    6f0c:	8b 90 80 12 00 00    	mov    0x1280(%eax),%edx
    6f12:	89 90 8c 1b 00 00    	mov    %edx,0x1b8c(%eax)
	if (current->used_math) {
    6f18:	8b 90 80 12 00 00    	mov    0x1280(%eax),%edx
    6f1e:	0f b7 92 28 03 00 00 	movzwl 0x328(%edx),%edx
    6f25:	66 85 d2             	test   %dx,%dx
    6f28:	74 0d                	je     6f37 <math_state_restore+0x5c>
		__asm__("frstor %0"::"m" (current->tss.i387));
    6f2a:	8b 80 80 12 00 00    	mov    0x1280(%eax),%eax
    6f30:	dd a0 18 04 00 00    	frstor 0x418(%eax)
    6f36:	c3                   	ret    
	} else {
		__asm__("fninit"::);					// 向协处理器发初始化命令.
    6f37:	db e3                	fninit 
		current->used_math=1;					// 设置已使用协处理器标志.
    6f39:	8b 80 80 12 00 00    	mov    0x1280(%eax),%eax
    6f3f:	66 c7 80 28 03 00 00 	movw   $0x1,0x328(%eax)
    6f46:	01 00 
    6f48:	c3                   	ret    
		return;
    6f49:	90                   	nop
	}
}
    6f4a:	c3                   	ret    

00006f4b <schedule>:
 *
 * 注意!!任务0是个闲置('idle')任务,只有当没有其他任务可以运行时才调用它.它不能被杀死,也不睡眠.任务0中的状态信息'state'是从
 * 来不用的.
 */
void schedule(void)
{
    6f4b:	53                   	push   %ebx
    6f4c:	83 ec 20             	sub    $0x20,%esp
    6f4f:	e8 9e fd ff ff       	call   6cf2 <__x86.get_pc_thunk.ax>
    6f54:	05 ac b0 02 00       	add    $0x2b0ac,%eax

	/* check alarm, wake up any interruptible tasks that have got a signal */
	/* 检测alarm(进程的报警定时值),唤醒任何已得到信号的可中断任务 */

	// 从任务数组中最后一个任务开始循环检测alarm.在循环时跳过空指针项.
	for(p = &LAST_TASK ; p > &FIRST_TASK ; --p)
    6f59:	8d 90 9c 13 00 00    	lea    0x139c(%eax),%edx
    6f5f:	89 54 24 10          	mov    %edx,0x10(%esp)
    6f63:	e9 e9 00 00 00       	jmp    7051 <schedule+0x106>
		if (*p) {
    6f68:	8b 54 24 10          	mov    0x10(%esp),%edx
    6f6c:	8b 12                	mov    (%edx),%edx
    6f6e:	85 d2                	test   %edx,%edx
    6f70:	0f 84 d6 00 00 00    	je     704c <schedule+0x101>
			// 如果设置过任务超时定时timeout,并且已经超时,则复位超时定时值,并且如果任务处于可中断睡眠状态TASK_INTERRUPTIBLE下,将其置为就绪
			// 状态(TASK_RUNNING).
			if ((*p)->timeout && (*p)->timeout < jiffies) {
    6f76:	8b 54 24 10          	mov    0x10(%esp),%edx
    6f7a:	8b 12                	mov    (%edx),%edx
    6f7c:	8b 92 d8 02 00 00    	mov    0x2d8(%edx),%edx
    6f82:	85 d2                	test   %edx,%edx
    6f84:	74 3f                	je     6fc5 <schedule+0x7a>
    6f86:	8b 54 24 10          	mov    0x10(%esp),%edx
    6f8a:	8b 12                	mov    (%edx),%edx
    6f8c:	8b 8a d8 02 00 00    	mov    0x2d8(%edx),%ecx
    6f92:	8b 90 80 1b 00 00    	mov    0x1b80(%eax),%edx
    6f98:	39 d1                	cmp    %edx,%ecx
    6f9a:	73 29                	jae    6fc5 <schedule+0x7a>
				(*p)->timeout = 0;
    6f9c:	8b 54 24 10          	mov    0x10(%esp),%edx
    6fa0:	8b 12                	mov    (%edx),%edx
    6fa2:	c7 82 d8 02 00 00 00 	movl   $0x0,0x2d8(%edx)
    6fa9:	00 00 00 
				if ((*p)->state == TASK_INTERRUPTIBLE)
    6fac:	8b 54 24 10          	mov    0x10(%esp),%edx
    6fb0:	8b 12                	mov    (%edx),%edx
    6fb2:	8b 12                	mov    (%edx),%edx
    6fb4:	83 fa 01             	cmp    $0x1,%edx
    6fb7:	75 0c                	jne    6fc5 <schedule+0x7a>
					(*p)->state = TASK_RUNNING;
    6fb9:	8b 54 24 10          	mov    0x10(%esp),%edx
    6fbd:	8b 12                	mov    (%edx),%edx
    6fbf:	c7 02 00 00 00 00    	movl   $0x0,(%edx)
			}
			// 如果设置过任务的定时值alarm,并且已经过期(alarm<jiffies),则在信号位图中置SIGALRM信号,即向任务发送SIGALARM信号.然后清alarm.
			// 该信号的默认操作是终止进程.jiffies是系统从开机开始算起的滴答数(10ms/滴答).定义在sched.h中.
			if ((*p)->alarm && (*p)->alarm < jiffies) {
    6fc5:	8b 54 24 10          	mov    0x10(%esp),%edx
    6fc9:	8b 12                	mov    (%edx),%edx
    6fcb:	8b 92 dc 02 00 00    	mov    0x2dc(%edx),%edx
    6fd1:	85 d2                	test   %edx,%edx
    6fd3:	74 3b                	je     7010 <schedule+0xc5>
    6fd5:	8b 54 24 10          	mov    0x10(%esp),%edx
    6fd9:	8b 12                	mov    (%edx),%edx
    6fdb:	8b 8a dc 02 00 00    	mov    0x2dc(%edx),%ecx
    6fe1:	8b 90 80 1b 00 00    	mov    0x1b80(%eax),%edx
    6fe7:	39 d1                	cmp    %edx,%ecx
    6fe9:	73 25                	jae    7010 <schedule+0xc5>
				(*p)->signal |= (1 << (SIGALRM - 1));
    6feb:	8b 54 24 10          	mov    0x10(%esp),%edx
    6fef:	8b 12                	mov    (%edx),%edx
    6ff1:	8b 4a 0c             	mov    0xc(%edx),%ecx
    6ff4:	8b 54 24 10          	mov    0x10(%esp),%edx
    6ff8:	8b 12                	mov    (%edx),%edx
    6ffa:	80 cd 20             	or     $0x20,%ch
    6ffd:	89 4a 0c             	mov    %ecx,0xc(%edx)
				(*p)->alarm = 0;
    7000:	8b 54 24 10          	mov    0x10(%esp),%edx
    7004:	8b 12                	mov    (%edx),%edx
    7006:	c7 82 dc 02 00 00 00 	movl   $0x0,0x2dc(%edx)
    700d:	00 00 00 
			}
			// 如果信号位图中除被阻塞的信号外还有其他信号,并且任务处于可中断状态,则置任务为就绪状态.
			// 其中'~(_BLOCKABLE & (*p)->blocked)'用于忽略被阻塞的信号,但SIGKILL和SIGSTOP不能被阻塞.
			if (((*p)->signal & ~(_BLOCKABLE & (*p)->blocked)) && (*p)->state == TASK_INTERRUPTIBLE)
    7010:	8b 54 24 10          	mov    0x10(%esp),%edx
    7014:	8b 12                	mov    (%edx),%edx
    7016:	8b 4a 0c             	mov    0xc(%edx),%ecx
    7019:	8b 54 24 10          	mov    0x10(%esp),%edx
    701d:	8b 12                	mov    (%edx),%edx
    701f:	8b 92 10 02 00 00    	mov    0x210(%edx),%edx
    7025:	81 e2 ff fe fb ff    	and    $0xfffbfeff,%edx
    702b:	f7 d2                	not    %edx
    702d:	21 ca                	and    %ecx,%edx
    702f:	85 d2                	test   %edx,%edx
    7031:	74 19                	je     704c <schedule+0x101>
    7033:	8b 54 24 10          	mov    0x10(%esp),%edx
    7037:	8b 12                	mov    (%edx),%edx
    7039:	8b 12                	mov    (%edx),%edx
    703b:	83 fa 01             	cmp    $0x1,%edx
    703e:	75 0c                	jne    704c <schedule+0x101>
				(*p)->state = TASK_RUNNING;
    7040:	8b 54 24 10          	mov    0x10(%esp),%edx
    7044:	8b 12                	mov    (%edx),%edx
    7046:	c7 02 00 00 00 00    	movl   $0x0,(%edx)
	for(p = &LAST_TASK ; p > &FIRST_TASK ; --p)
    704c:	83 6c 24 10 04       	subl   $0x4,0x10(%esp)
    7051:	8d 90 a0 12 00 00    	lea    0x12a0(%eax),%edx
    7057:	39 54 24 10          	cmp    %edx,0x10(%esp)
    705b:	0f 87 07 ff ff ff    	ja     6f68 <schedule+0x1d>
		}

	/* this is the scheduler proper: */
	/* 这里是调度程序的主要部分 */
	while (1) {
		c = -1;
    7061:	c7 44 24 14 ff ff ff 	movl   $0xffffffff,0x14(%esp)
    7068:	ff 
		next = 0;
    7069:	c7 44 24 18 00 00 00 	movl   $0x0,0x18(%esp)
    7070:	00 
		i = NR_TASKS;
    7071:	c7 44 24 1c 40 00 00 	movl   $0x40,0x1c(%esp)
    7078:	00 
		p = &task[NR_TASKS];
    7079:	8d 90 a0 13 00 00    	lea    0x13a0(%eax),%edx
    707f:	89 54 24 10          	mov    %edx,0x10(%esp)
		// 这段代码是从任务数组的最后一个任务开始循环处理,并跳过不含任务的数组糟.比较每个就绪状态任务的counter(任务运行时间的递减滴答计数)值,
		// 哪一个值大,运行时间还不长,next就指向哪个的任务号.
		while (--i) {
    7083:	eb 41                	jmp    70c6 <schedule+0x17b>
			// 当前索引没有进程指针则跳过当前循环
			if (!*--p)
    7085:	83 6c 24 10 04       	subl   $0x4,0x10(%esp)
    708a:	8b 54 24 10          	mov    0x10(%esp),%edx
    708e:	8b 12                	mov    (%edx),%edx
    7090:	85 d2                	test   %edx,%edx
    7092:	75 02                	jne    7096 <schedule+0x14b>
				continue;
    7094:	eb 30                	jmp    70c6 <schedule+0x17b>
			if ((*p)->state == TASK_RUNNING && (*p)->counter > c)
    7096:	8b 54 24 10          	mov    0x10(%esp),%edx
    709a:	8b 12                	mov    (%edx),%edx
    709c:	8b 12                	mov    (%edx),%edx
    709e:	85 d2                	test   %edx,%edx
    70a0:	75 24                	jne    70c6 <schedule+0x17b>
    70a2:	8b 54 24 10          	mov    0x10(%esp),%edx
    70a6:	8b 12                	mov    (%edx),%edx
    70a8:	8b 52 04             	mov    0x4(%edx),%edx
    70ab:	39 54 24 14          	cmp    %edx,0x14(%esp)
    70af:	7d 15                	jge    70c6 <schedule+0x17b>
				c = (*p)->counter, next = i;
    70b1:	8b 54 24 10          	mov    0x10(%esp),%edx
    70b5:	8b 12                	mov    (%edx),%edx
    70b7:	8b 52 04             	mov    0x4(%edx),%edx
    70ba:	89 54 24 14          	mov    %edx,0x14(%esp)
    70be:	8b 54 24 1c          	mov    0x1c(%esp),%edx
    70c2:	89 54 24 18          	mov    %edx,0x18(%esp)
		while (--i) {
    70c6:	83 6c 24 1c 01       	subl   $0x1,0x1c(%esp)
    70cb:	83 7c 24 1c 00       	cmpl   $0x0,0x1c(%esp)
    70d0:	75 b3                	jne    7085 <schedule+0x13a>
		}
		// 如果比较得出有counter值不等于0的结果,或者後方中没有一个可运行的任务存在(此时c仍然为-1,next=0),则退出开始的循环,执行161行上的任务切换
		// 操作.否则就根据每个任务的优先权值,更新每一个任务的counter值,然后回到125行重新比较.counter值的计算方式为counter = counter /2 +priority.
		// 注意,这里计算过程不考虑进程的状态.
		if (c) break;
    70d2:	83 7c 24 14 00       	cmpl   $0x0,0x14(%esp)
    70d7:	75 4d                	jne    7126 <schedule+0x1db>
		for(p = &LAST_TASK ; p > &FIRST_TASK ; --p)
    70d9:	8d 90 9c 13 00 00    	lea    0x139c(%eax),%edx
    70df:	89 54 24 10          	mov    %edx,0x10(%esp)
    70e3:	eb 30                	jmp    7115 <schedule+0x1ca>
			if (*p)
    70e5:	8b 54 24 10          	mov    0x10(%esp),%edx
    70e9:	8b 12                	mov    (%edx),%edx
    70eb:	85 d2                	test   %edx,%edx
    70ed:	74 21                	je     7110 <schedule+0x1c5>
				(*p)->counter = ((*p)->counter >> 1) + (*p)->priority;
    70ef:	8b 54 24 10          	mov    0x10(%esp),%edx
    70f3:	8b 12                	mov    (%edx),%edx
    70f5:	8b 52 04             	mov    0x4(%edx),%edx
    70f8:	89 d3                	mov    %edx,%ebx
    70fa:	d1 fb                	sar    %ebx
    70fc:	8b 54 24 10          	mov    0x10(%esp),%edx
    7100:	8b 12                	mov    (%edx),%edx
    7102:	8b 4a 08             	mov    0x8(%edx),%ecx
    7105:	8b 54 24 10          	mov    0x10(%esp),%edx
    7109:	8b 12                	mov    (%edx),%edx
    710b:	01 d9                	add    %ebx,%ecx
    710d:	89 4a 04             	mov    %ecx,0x4(%edx)
		for(p = &LAST_TASK ; p > &FIRST_TASK ; --p)
    7110:	83 6c 24 10 04       	subl   $0x4,0x10(%esp)
    7115:	8d 90 a0 12 00 00    	lea    0x12a0(%eax),%edx
    711b:	39 54 24 10          	cmp    %edx,0x10(%esp)
    711f:	77 c4                	ja     70e5 <schedule+0x19a>
		c = -1;
    7121:	e9 3b ff ff ff       	jmp    7061 <schedule+0x116>
		if (c) break;
    7126:	90                   	nop
	}
	// 用下面的宏(定义在sched.h中)把当前任务指针current指向任务号为next的任务,并切换到该任务中运行.在146行上next被初始化为0.因此若系统中没有任何
	// 其他任务可运行时,则next始终为0.因此调度函数会在系统空闲时去执行任务0.此时任务0权执行pause()
	switch_to(next);					// 切换到任务号为next的任务,并运行之.
    7127:	8b 54 24 18          	mov    0x18(%esp),%edx
    712b:	c1 e2 04             	shl    $0x4,%edx
    712e:	8d 5a 20             	lea    0x20(%edx),%ebx
    7131:	8b 54 24 18          	mov    0x18(%esp),%edx
    7135:	8b 84 90 a0 12 00 00 	mov    0x12a0(%eax,%edx,4),%eax
    713c:	89 da                	mov    %ebx,%edx
    713e:	89 c1                	mov    %eax,%ecx
    7140:	39 0d 80 32 03 00    	cmp    %ecx,0x33280
    7146:	74 19                	je     7161 <schedule+0x216>
    7148:	66 89 54 24 0c       	mov    %dx,0xc(%esp)
    714d:	87 0d 80 32 03 00    	xchg   %ecx,0x33280
    7153:	ff 6c 24 08          	ljmp   *0x8(%esp)
    7157:	39 0d 8c 3b 03 00    	cmp    %ecx,0x33b8c
    715d:	75 02                	jne    7161 <schedule+0x216>
    715f:	0f 06                	clts   
}
    7161:	90                   	nop
    7162:	83 c4 20             	add    $0x20,%esp
    7165:	5b                   	pop    %ebx
    7166:	c3                   	ret    

00007167 <sys_pause>:

// pause()系统调用.转换当前任务的状态为可中断的等待状态,并重新调试.
// 该系统调用将导致进程进入睡眠状态,直到收到一个信号.该信号用于终止进程或者使进程调用一个信号捕获函数.只有当捕获了一个信号,并且信号捕获处理函数返回,
// pause()才会返回.此时pause()返回值应该是-1,并且errno被置为EINTR.这里还没有完全实现(直到0.95版).
int sys_pause(void)
{
    7167:	e8 86 fb ff ff       	call   6cf2 <__x86.get_pc_thunk.ax>
    716c:	05 94 ae 02 00       	add    $0x2ae94,%eax
	current->state = TASK_INTERRUPTIBLE;
    7171:	8b 80 80 12 00 00    	mov    0x1280(%eax),%eax
    7177:	c7 00 01 00 00 00    	movl   $0x1,(%eax)
	schedule();
    717d:	e8 c9 fd ff ff       	call   6f4b <schedule>
	return 0;
    7182:	b8 00 00 00 00       	mov    $0x0,%eax
}
    7187:	c3                   	ret    

00007188 <__sleep_on>:
// 是任务结构)会改变,因此为了能修改调用该函数程序中原来就是指针变量的值,就需要传递指针'*p'的指针,即'**p'.
// 参数state是任务睡眠使用的状态:TASK_INTERRUPTIBLE或TASK_INTERRUPTIBLE.处于不可中断睡眠状态(TASK_UNINTERRUPTIBLE)的任务需要内核程序利用
// wake_up()函数明确唤醒之.处于可中断睡眠状态(TASK_INTERRUPTIBLE)可以通过信号,任务起时等手段唤醒(置为就绪状态TASK_RUNNING).
// *** 注意,由于本内核代码不是很成熟,因此下列与睡眠相关的代码存在一些问题,不宜深究.
static inline void __sleep_on(struct task_struct **p, int state)
{
    7188:	53                   	push   %ebx
    7189:	83 ec 18             	sub    $0x18,%esp
    718c:	e8 69 fb ff ff       	call   6cfa <__x86.get_pc_thunk.bx>
    7191:	81 c3 6f ae 02 00    	add    $0x2ae6f,%ebx
	struct task_struct *tmp;

	// 若指针无效,则退出.(指针所指的对象可以是NULL,但指针本身不会为0).
	// 如果当前任务是任务0,则死机(impossible!).
	if (!p)
    7197:	83 7c 24 20 00       	cmpl   $0x0,0x20(%esp)
    719c:	0f 84 b9 00 00 00    	je     725b <__sleep_on+0xd3>
		return;
	if (current == &(init_task.task))
    71a2:	8b 93 80 12 00 00    	mov    0x1280(%ebx),%edx
    71a8:	8d 83 60 02 00 00    	lea    0x260(%ebx),%eax
    71ae:	39 c2                	cmp    %eax,%edx
    71b0:	75 12                	jne    71c4 <__sleep_on+0x3c>
		panic("task[0] trying to sleep");
    71b2:	83 ec 0c             	sub    $0xc,%esp
    71b5:	8d 83 d3 41 ff ff    	lea    -0xbe2d(%ebx),%eax
    71bb:	50                   	push   %eax
    71bc:	e8 1d 21 00 00       	call   92de <panic>
    71c1:	83 c4 10             	add    $0x10,%esp
	// 让tmp指向已经在等待队列上的任务(如果有的话),例如inode->i_wait.并且将睡眠队列头的等待指针指向当前任务.这样就把当前任务插入到了*p的等待队列中.然后
	// 将当前任务置为指定的等待状态,并执行重新调度.
	tmp = *p;
    71c4:	8b 44 24 20          	mov    0x20(%esp),%eax
    71c8:	8b 00                	mov    (%eax),%eax
    71ca:	89 44 24 0c          	mov    %eax,0xc(%esp)
	*p = current;
    71ce:	8b 93 80 12 00 00    	mov    0x1280(%ebx),%edx
    71d4:	8b 44 24 20          	mov    0x20(%esp),%eax
    71d8:	89 10                	mov    %edx,(%eax)
	current->state = state;
    71da:	8b 83 80 12 00 00    	mov    0x1280(%ebx),%eax
    71e0:	8b 54 24 24          	mov    0x24(%esp),%edx
    71e4:	89 10                	mov    %edx,(%eax)
	// 将当前进程睡眠后立刻调用调度函数进行调度新的进程执行
repeat:	schedule();
    71e6:	e8 60 fd ff ff       	call   6f4b <schedule>
	// 只有当这个等待任务被唤醒时,程序才会返回到这里,表示进程已被明确地唤醒并执行.如果等待队列中还有等待任务,并且队列头指针*p所指向的任务不是当前任务时,说明
	// 在本任务插入等待队列后还有任务进入等待队列.于是我们应该也要唤醒这个任务,而我们自己应按顺序让这些后面进入队列的任务唤醒,因此这里将等待队列头所指任务先
	// 置为就绪状态,而自己则置为不可中断等待状态,即自己要等待这些后续队列的任务被唤醒而执行时来唤醒本任务.然后重新执行调度程序.
	if (*p && *p != current) {
    71eb:	8b 44 24 20          	mov    0x20(%esp),%eax
    71ef:	8b 00                	mov    (%eax),%eax
    71f1:	85 c0                	test   %eax,%eax
    71f3:	74 2a                	je     721f <__sleep_on+0x97>
    71f5:	8b 44 24 20          	mov    0x20(%esp),%eax
    71f9:	8b 10                	mov    (%eax),%edx
    71fb:	8b 83 80 12 00 00    	mov    0x1280(%ebx),%eax
    7201:	39 c2                	cmp    %eax,%edx
    7203:	74 1a                	je     721f <__sleep_on+0x97>
		(**p).state = 0;
    7205:	8b 44 24 20          	mov    0x20(%esp),%eax
    7209:	8b 00                	mov    (%eax),%eax
    720b:	c7 00 00 00 00 00    	movl   $0x0,(%eax)
		current->state = TASK_UNINTERRUPTIBLE;
    7211:	8b 83 80 12 00 00    	mov    0x1280(%ebx),%eax
    7217:	c7 00 02 00 00 00    	movl   $0x2,(%eax)
		goto repeat;
    721d:	eb c7                	jmp    71e6 <__sleep_on+0x5e>
	}
	// 执行到这里,说明本任务真正被唤醒执行.此时等待队列头指针应该指向本任务,若它为空,则表明调度有问题,于是显示警告信息.最后我们让头指针指向在我们前面进入队列的
	// 任务(*p = tmp).若确实存在这样一个任务,即队列中还有任务(tmp不为空),就唤醒之.最先进入队列的任务在唤醒后运行时最终会把等待队列头指针置成NULL.
	if (!*p)
    721f:	8b 44 24 20          	mov    0x20(%esp),%eax
    7223:	8b 00                	mov    (%eax),%eax
    7225:	85 c0                	test   %eax,%eax
    7227:	75 12                	jne    723b <__sleep_on+0xb3>
		printk("Warning: *P = NULL\n\r");
    7229:	83 ec 0c             	sub    $0xc,%esp
    722c:	8d 83 eb 41 ff ff    	lea    -0xbe15(%ebx),%eax
    7232:	50                   	push   %eax
    7233:	e8 fa 20 00 00       	call   9332 <printk>
    7238:	83 c4 10             	add    $0x10,%esp
	if (*p = tmp)
    723b:	8b 44 24 20          	mov    0x20(%esp),%eax
    723f:	8b 54 24 0c          	mov    0xc(%esp),%edx
    7243:	89 10                	mov    %edx,(%eax)
    7245:	8b 44 24 20          	mov    0x20(%esp),%eax
    7249:	8b 00                	mov    (%eax),%eax
    724b:	85 c0                	test   %eax,%eax
    724d:	74 0d                	je     725c <__sleep_on+0xd4>
		tmp->state = 0;
    724f:	8b 44 24 0c          	mov    0xc(%esp),%eax
    7253:	c7 00 00 00 00 00    	movl   $0x0,(%eax)
    7259:	eb 01                	jmp    725c <__sleep_on+0xd4>
		return;
    725b:	90                   	nop
}
    725c:	83 c4 18             	add    $0x18,%esp
    725f:	5b                   	pop    %ebx
    7260:	c3                   	ret    

00007261 <interruptible_sleep_on>:

// 将当前任务置为可中断的等待状态(TASK_INIERRUPTIBLE),并放入头指针*p指定的等待队列中.
void interruptible_sleep_on(struct task_struct **p)
{
    7261:	83 ec 0c             	sub    $0xc,%esp
    7264:	e8 89 fa ff ff       	call   6cf2 <__x86.get_pc_thunk.ax>
    7269:	05 97 ad 02 00       	add    $0x2ad97,%eax
	__sleep_on(p, TASK_INTERRUPTIBLE);
    726e:	83 ec 08             	sub    $0x8,%esp
    7271:	6a 01                	push   $0x1
    7273:	ff 74 24 1c          	pushl  0x1c(%esp)
    7277:	e8 0c ff ff ff       	call   7188 <__sleep_on>
    727c:	83 c4 10             	add    $0x10,%esp
}
    727f:	90                   	nop
    7280:	83 c4 0c             	add    $0xc,%esp
    7283:	c3                   	ret    

00007284 <sleep_on>:

// 把当前任务置为不可中断的等待状态(TASK_UNINTERRUPTIBLE),并让睡眠队列头指针指向当前任务.只有明确地唤醒时才会返回.该函数提供了进程与中断处理程序之间的
// 同步机制.
void sleep_on(struct task_struct **p)
{
    7284:	83 ec 0c             	sub    $0xc,%esp
    7287:	e8 66 fa ff ff       	call   6cf2 <__x86.get_pc_thunk.ax>
    728c:	05 74 ad 02 00       	add    $0x2ad74,%eax
	__sleep_on(p, TASK_UNINTERRUPTIBLE);
    7291:	83 ec 08             	sub    $0x8,%esp
    7294:	6a 02                	push   $0x2
    7296:	ff 74 24 1c          	pushl  0x1c(%esp)
    729a:	e8 e9 fe ff ff       	call   7188 <__sleep_on>
    729f:	83 c4 10             	add    $0x10,%esp
}
    72a2:	90                   	nop
    72a3:	83 c4 0c             	add    $0xc,%esp
    72a6:	c3                   	ret    

000072a7 <wake_up>:

// 唤醒*p指向的任务.*p是任务等待队列头指针.由于新等待任务是插入在等待队列头指针处的,因此唤醒的是最后进入等待队列的任务.若该任务已经处于停止或
// 僵死状态,则显示警告信息.
void wake_up(struct task_struct **p)
{
    72a7:	53                   	push   %ebx
    72a8:	83 ec 08             	sub    $0x8,%esp
    72ab:	e8 4a fa ff ff       	call   6cfa <__x86.get_pc_thunk.bx>
    72b0:	81 c3 50 ad 02 00    	add    $0x2ad50,%ebx
	if (p && *p) {
    72b6:	83 7c 24 10 00       	cmpl   $0x0,0x10(%esp)
    72bb:	74 54                	je     7311 <wake_up+0x6a>
    72bd:	8b 44 24 10          	mov    0x10(%esp),%eax
    72c1:	8b 00                	mov    (%eax),%eax
    72c3:	85 c0                	test   %eax,%eax
    72c5:	74 4a                	je     7311 <wake_up+0x6a>
		if ((**p).state == TASK_STOPPED)						// 处于停止状态.
    72c7:	8b 44 24 10          	mov    0x10(%esp),%eax
    72cb:	8b 00                	mov    (%eax),%eax
    72cd:	8b 00                	mov    (%eax),%eax
    72cf:	83 f8 04             	cmp    $0x4,%eax
    72d2:	75 12                	jne    72e6 <wake_up+0x3f>
			printk("wake_up: TASK_STOPPED");
    72d4:	83 ec 0c             	sub    $0xc,%esp
    72d7:	8d 83 00 42 ff ff    	lea    -0xbe00(%ebx),%eax
    72dd:	50                   	push   %eax
    72de:	e8 4f 20 00 00       	call   9332 <printk>
    72e3:	83 c4 10             	add    $0x10,%esp
		if ((**p).state == TASK_ZOMBIE)							// 处于僵死状态.
    72e6:	8b 44 24 10          	mov    0x10(%esp),%eax
    72ea:	8b 00                	mov    (%eax),%eax
    72ec:	8b 00                	mov    (%eax),%eax
    72ee:	83 f8 03             	cmp    $0x3,%eax
    72f1:	75 12                	jne    7305 <wake_up+0x5e>
			printk("wake_up: TASK_ZOMBIE");
    72f3:	83 ec 0c             	sub    $0xc,%esp
    72f6:	8d 83 16 42 ff ff    	lea    -0xbdea(%ebx),%eax
    72fc:	50                   	push   %eax
    72fd:	e8 30 20 00 00       	call   9332 <printk>
    7302:	83 c4 10             	add    $0x10,%esp
		(**p).state=0;											// 置为就绪状态TASK_RUNNING.
    7305:	8b 44 24 10          	mov    0x10(%esp),%eax
    7309:	8b 00                	mov    (%eax),%eax
    730b:	c7 00 00 00 00 00    	movl   $0x0,(%eax)
	}
}
    7311:	90                   	nop
    7312:	83 c4 08             	add    $0x8,%esp
    7315:	5b                   	pop    %ebx
    7316:	c3                   	ret    

00007317 <ticks_to_floppy_on>:

// 指定软驱启动到正常运转状态所需等待时间.
// 参数nr -- 软驱号(0--3),返回值为滴答.
// 局部变量selected是选中软驱标志(blk_drv/floppy.c).mask是所选软驱对应的数字输出寄存器中启动马达位.mask高4位是各软驱启动马达标志.
int ticks_to_floppy_on(unsigned int nr)
{
    7317:	53                   	push   %ebx
    7318:	83 ec 18             	sub    $0x18,%esp
    731b:	e8 da f9 ff ff       	call   6cfa <__x86.get_pc_thunk.bx>
    7320:	81 c3 e0 ac 02 00    	add    $0x2ace0,%ebx
	extern unsigned char selected;
	unsigned char mask = 0x10 << nr;
    7326:	8b 44 24 20          	mov    0x20(%esp),%eax
    732a:	ba 10 00 00 00       	mov    $0x10,%edx
    732f:	89 c1                	mov    %eax,%ecx
    7331:	d3 e2                	shl    %cl,%edx
    7333:	89 d0                	mov    %edx,%eax
    7335:	88 44 24 0f          	mov    %al,0xf(%esp)

	// 系统最多有4个软驱.首先预先设置好指定软驱nr停转之前需要经过的时间(100秒).然后取当前DOR寄存器值到临时变量mask中,并把指定软驱的马达
	// 启动标志置位.
	if (nr > 3)
    7339:	83 7c 24 20 03       	cmpl   $0x3,0x20(%esp)
    733e:	76 12                	jbe    7352 <ticks_to_floppy_on+0x3b>
		panic("floppy_on: nr>3");
    7340:	83 ec 0c             	sub    $0xc,%esp
    7343:	8d 83 2b 42 ff ff    	lea    -0xbdd5(%ebx),%eax
    7349:	50                   	push   %eax
    734a:	e8 8f 1f 00 00       	call   92de <panic>
    734f:	83 c4 10             	add    $0x10,%esp
	moff_timer[nr] = 10000;							/* 100 s = very big :-) */	// 停转维持时间.
    7352:	8b 44 24 20          	mov    0x20(%esp),%eax
    7356:	c7 84 83 b0 1b 00 00 	movl   $0x2710,0x1bb0(%ebx,%eax,4)
    735d:	10 27 00 00 
	cli();											/* use floppy_off to turn it off */	// 关中断
    7361:	fa                   	cli    
	mask |= current_DOR;
    7362:	0f b6 83 64 00 00 00 	movzbl 0x64(%ebx),%eax
    7369:	08 44 24 0f          	or     %al,0xf(%esp)
	// 如果当前没有选择软驱,则首先复位其他软驱的选择位,然后指定软驱选择位.
	if (!selected) {
    736d:	c7 c0 d8 61 03 00    	mov    $0x361d8,%eax
    7373:	0f b6 00             	movzbl (%eax),%eax
    7376:	84 c0                	test   %al,%al
    7378:	75 0d                	jne    7387 <ticks_to_floppy_on+0x70>
		mask &= 0xFC;
    737a:	80 64 24 0f fc       	andb   $0xfc,0xf(%esp)
		mask |= nr;
    737f:	8b 44 24 20          	mov    0x20(%esp),%eax
    7383:	08 44 24 0f          	or     %al,0xf(%esp)
	}
	// 如果数字输出寄存器的当前值与要求的值不同,则向FDC数字输出端口输出新值(mask),并且如果要求启动的马达还没有启动,则置相应软驱的马达启动
	// 定时器值(HZ/2 = 0.5秒或50个滴答).若已经启动,则再设置启动定时为2个滴答,能满足下面do_floppy_timer()中先递减后判断的要求.执行本次
	// 定时代码的要求即可.此后更新当前数字输出寄存器current_DOR.
	if (mask != current_DOR) {
    7387:	0f b6 83 64 00 00 00 	movzbl 0x64(%ebx),%eax
    738e:	38 44 24 0f          	cmp    %al,0xf(%esp)
    7392:	74 5d                	je     73f1 <ticks_to_floppy_on+0xda>
		outb(mask, FD_DOR);
    7394:	0f b6 44 24 0f       	movzbl 0xf(%esp),%eax
    7399:	ba f2 03 00 00       	mov    $0x3f2,%edx
    739e:	ee                   	out    %al,(%dx)
		if ((mask ^ current_DOR) & 0xf0)
    739f:	0f b6 83 64 00 00 00 	movzbl 0x64(%ebx),%eax
    73a6:	32 44 24 0f          	xor    0xf(%esp),%al
    73aa:	0f b6 c0             	movzbl %al,%eax
    73ad:	25 f0 00 00 00       	and    $0xf0,%eax
    73b2:	85 c0                	test   %eax,%eax
    73b4:	74 11                	je     73c7 <ticks_to_floppy_on+0xb0>
			mon_timer[nr] = HZ / 2;
    73b6:	8b 44 24 20          	mov    0x20(%esp),%eax
    73ba:	c7 84 83 a0 1b 00 00 	movl   $0x32,0x1ba0(%ebx,%eax,4)
    73c1:	32 00 00 00 
    73c5:	eb 1f                	jmp    73e6 <ticks_to_floppy_on+0xcf>
		else if (mon_timer[nr] < 2)
    73c7:	8b 44 24 20          	mov    0x20(%esp),%eax
    73cb:	8b 84 83 a0 1b 00 00 	mov    0x1ba0(%ebx,%eax,4),%eax
    73d2:	83 f8 01             	cmp    $0x1,%eax
    73d5:	7f 0f                	jg     73e6 <ticks_to_floppy_on+0xcf>
			mon_timer[nr] = 2;
    73d7:	8b 44 24 20          	mov    0x20(%esp),%eax
    73db:	c7 84 83 a0 1b 00 00 	movl   $0x2,0x1ba0(%ebx,%eax,4)
    73e2:	02 00 00 00 
		current_DOR = mask;
    73e6:	0f b6 44 24 0f       	movzbl 0xf(%esp),%eax
    73eb:	88 83 64 00 00 00    	mov    %al,0x64(%ebx)
	}
	sti();											// 开中断.
    73f1:	fb                   	sti    
	return mon_timer[nr];							// 最后返回启动马达所需的时间值.
    73f2:	8b 44 24 20          	mov    0x20(%esp),%eax
    73f6:	8b 84 83 a0 1b 00 00 	mov    0x1ba0(%ebx,%eax,4),%eax
}
    73fd:	83 c4 18             	add    $0x18,%esp
    7400:	5b                   	pop    %ebx
    7401:	c3                   	ret    

00007402 <floppy_on>:

// 等待指定软驱马达启动所需的一段时间,然后返回.
// 设置指定软驱的马达启动到正常转速所需的延时,然后睡眠等待.在定时中断过程中会一直递减判断这里设定的延时值.当延时到期,就会 这里的等待进程.
void floppy_on(unsigned int nr)
{
    7402:	53                   	push   %ebx
    7403:	83 ec 08             	sub    $0x8,%esp
    7406:	e8 ef f8 ff ff       	call   6cfa <__x86.get_pc_thunk.bx>
    740b:	81 c3 f5 ab 02 00    	add    $0x2abf5,%ebx
	// 关中断.如果马达启动定时还没到,就一直把当前进程置为不可中断睡眠状态并放入等待马达运行的队列中.然后开中断.
	cli();
    7411:	fa                   	cli    
	while (ticks_to_floppy_on(nr))
    7412:	eb 1f                	jmp    7433 <floppy_on+0x31>
		sleep_on(nr + wait_motor);
    7414:	8b 44 24 10          	mov    0x10(%esp),%eax
    7418:	8d 14 85 00 00 00 00 	lea    0x0(,%eax,4),%edx
    741f:	8d 83 90 1b 00 00    	lea    0x1b90(%ebx),%eax
    7425:	01 d0                	add    %edx,%eax
    7427:	83 ec 0c             	sub    $0xc,%esp
    742a:	50                   	push   %eax
    742b:	e8 54 fe ff ff       	call   7284 <sleep_on>
    7430:	83 c4 10             	add    $0x10,%esp
	while (ticks_to_floppy_on(nr))
    7433:	83 ec 0c             	sub    $0xc,%esp
    7436:	ff 74 24 1c          	pushl  0x1c(%esp)
    743a:	e8 d8 fe ff ff       	call   7317 <ticks_to_floppy_on>
    743f:	83 c4 10             	add    $0x10,%esp
    7442:	85 c0                	test   %eax,%eax
    7444:	75 ce                	jne    7414 <floppy_on+0x12>
	sti();
    7446:	fb                   	sti    
}
    7447:	90                   	nop
    7448:	83 c4 08             	add    $0x8,%esp
    744b:	5b                   	pop    %ebx
    744c:	c3                   	ret    

0000744d <floppy_off>:

// 置关闭相应软驱马达停转定时器(3秒).
// 若不使用该函数明确关闭指定的软驱马达,则在马达开启100秒之后也会被关闭.
void floppy_off(unsigned int nr)
{
    744d:	e8 a0 f8 ff ff       	call   6cf2 <__x86.get_pc_thunk.ax>
    7452:	05 ae ab 02 00       	add    $0x2abae,%eax
	moff_timer[nr] = 3 * HZ;
    7457:	8b 54 24 04          	mov    0x4(%esp),%edx
    745b:	c7 84 90 b0 1b 00 00 	movl   $0x12c,0x1bb0(%eax,%edx,4)
    7462:	2c 01 00 00 
}
    7466:	90                   	nop
    7467:	c3                   	ret    

00007468 <do_floppy_timer>:

// 软盘定时处理子程序.更新马达启动定时值和马达关闭停转时值.该子程序会在时钟定时中断过程中被调用,因此系统每经过一个滴答(10ms)就会被
// 调用一次,随时更新马达开启或停转定时器的值.如果某一个马达停转定时到,则将数字输出寄存器马达启动位复位.
void do_floppy_timer(void)
{
    7468:	53                   	push   %ebx
    7469:	83 ec 18             	sub    $0x18,%esp
    746c:	e8 89 f8 ff ff       	call   6cfa <__x86.get_pc_thunk.bx>
    7471:	81 c3 8f ab 02 00    	add    $0x2ab8f,%ebx
	int i;
	unsigned char mask = 0x10;
    7477:	c6 44 24 0b 10       	movb   $0x10,0xb(%esp)

	for (i = 0 ; i < 4 ; i++, mask <<= 1) {
    747c:	c7 44 24 0c 00 00 00 	movl   $0x0,0xc(%esp)
    7483:	00 
    7484:	e9 c6 00 00 00       	jmp    754f <do_floppy_timer+0xe7>
		if (!(mask & current_DOR))						// 如果不是DOR指定的马达则跳过.
    7489:	0f b6 83 64 00 00 00 	movzbl 0x64(%ebx),%eax
    7490:	22 44 24 0b          	and    0xb(%esp),%al
    7494:	84 c0                	test   %al,%al
    7496:	0f 84 a9 00 00 00    	je     7545 <do_floppy_timer+0xdd>
			continue;
		if (mon_timer[i]) {								// 如果马达启动定时到则唤醒进程.
    749c:	8b 44 24 0c          	mov    0xc(%esp),%eax
    74a0:	8b 84 83 a0 1b 00 00 	mov    0x1ba0(%ebx,%eax,4),%eax
    74a7:	85 c0                	test   %eax,%eax
    74a9:	74 49                	je     74f4 <do_floppy_timer+0x8c>
			if (!--mon_timer[i])
    74ab:	8b 44 24 0c          	mov    0xc(%esp),%eax
    74af:	8b 84 83 a0 1b 00 00 	mov    0x1ba0(%ebx,%eax,4),%eax
    74b6:	8d 50 ff             	lea    -0x1(%eax),%edx
    74b9:	8b 44 24 0c          	mov    0xc(%esp),%eax
    74bd:	89 94 83 a0 1b 00 00 	mov    %edx,0x1ba0(%ebx,%eax,4)
    74c4:	8b 44 24 0c          	mov    0xc(%esp),%eax
    74c8:	8b 84 83 a0 1b 00 00 	mov    0x1ba0(%ebx,%eax,4),%eax
    74cf:	85 c0                	test   %eax,%eax
    74d1:	75 73                	jne    7546 <do_floppy_timer+0xde>
				wake_up(i + wait_motor);
    74d3:	8b 44 24 0c          	mov    0xc(%esp),%eax
    74d7:	8d 14 85 00 00 00 00 	lea    0x0(,%eax,4),%edx
    74de:	8d 83 90 1b 00 00    	lea    0x1b90(%ebx),%eax
    74e4:	01 d0                	add    %edx,%eax
    74e6:	83 ec 0c             	sub    $0xc,%esp
    74e9:	50                   	push   %eax
    74ea:	e8 b8 fd ff ff       	call   72a7 <wake_up>
    74ef:	83 c4 10             	add    $0x10,%esp
    74f2:	eb 52                	jmp    7546 <do_floppy_timer+0xde>
		} else if (!moff_timer[i]) {					// 如果马达停转定时到则复位相应马达启动位,并且更新数字输出寄存器.
    74f4:	8b 44 24 0c          	mov    0xc(%esp),%eax
    74f8:	8b 84 83 b0 1b 00 00 	mov    0x1bb0(%ebx,%eax,4),%eax
    74ff:	85 c0                	test   %eax,%eax
    7501:	75 27                	jne    752a <do_floppy_timer+0xc2>
			current_DOR &= ~mask;
    7503:	0f b6 44 24 0b       	movzbl 0xb(%esp),%eax
    7508:	f7 d0                	not    %eax
    750a:	89 c2                	mov    %eax,%edx
    750c:	0f b6 83 64 00 00 00 	movzbl 0x64(%ebx),%eax
    7513:	21 d0                	and    %edx,%eax
    7515:	88 83 64 00 00 00    	mov    %al,0x64(%ebx)
			outb(current_DOR, FD_DOR);
    751b:	0f b6 83 64 00 00 00 	movzbl 0x64(%ebx),%eax
    7522:	ba f2 03 00 00       	mov    $0x3f2,%edx
    7527:	ee                   	out    %al,(%dx)
    7528:	eb 1c                	jmp    7546 <do_floppy_timer+0xde>
		} else
			moff_timer[i]--;							// 否则马达停转计时递减.
    752a:	8b 44 24 0c          	mov    0xc(%esp),%eax
    752e:	8b 84 83 b0 1b 00 00 	mov    0x1bb0(%ebx,%eax,4),%eax
    7535:	8d 50 ff             	lea    -0x1(%eax),%edx
    7538:	8b 44 24 0c          	mov    0xc(%esp),%eax
    753c:	89 94 83 b0 1b 00 00 	mov    %edx,0x1bb0(%ebx,%eax,4)
    7543:	eb 01                	jmp    7546 <do_floppy_timer+0xde>
			continue;
    7545:	90                   	nop
	for (i = 0 ; i < 4 ; i++, mask <<= 1) {
    7546:	83 44 24 0c 01       	addl   $0x1,0xc(%esp)
    754b:	d0 64 24 0b          	shlb   0xb(%esp)
    754f:	83 7c 24 0c 03       	cmpl   $0x3,0xc(%esp)
    7554:	0f 8e 2f ff ff ff    	jle    7489 <do_floppy_timer+0x21>
	}
}
    755a:	90                   	nop
    755b:	83 c4 18             	add    $0x18,%esp
    755e:	5b                   	pop    %ebx
    755f:	c3                   	ret    

00007560 <add_timer>:

// 添加定时器.输入参数为指定的定时值(滴答数)和相应的处理程序指针.
// 软盘驱动程序(floppy.c)利用该函数执行启动或关闭马达的延时操作.
// 参数jiffies- 以10毫秒计的滴答数; *fn() - 定时时间到时执行的函数.
void add_timer(long jiffies, void (*fn)(void))
{
    7560:	53                   	push   %ebx
    7561:	83 ec 18             	sub    $0x18,%esp
    7564:	e8 91 f7 ff ff       	call   6cfa <__x86.get_pc_thunk.bx>
    7569:	81 c3 97 aa 02 00    	add    $0x2aa97,%ebx
	struct timer_list * p;

	// 如果定时处理程序指针为空,则退出.否则关中断.
	if (!fn)
    756f:	83 7c 24 24 00       	cmpl   $0x0,0x24(%esp)
    7574:	0f 84 5b 01 00 00    	je     76d5 <add_timer+0x175>
		return;
	cli();
    757a:	fa                   	cli    
	// 如果定时值<=0,则立刻调用其处理程序.并且该定时器不加入链表中.
	if (jiffies <= 0)
    757b:	83 7c 24 20 00       	cmpl   $0x0,0x20(%esp)
    7580:	7f 0b                	jg     758d <add_timer+0x2d>
		(fn)();
    7582:	8b 44 24 24          	mov    0x24(%esp),%eax
    7586:	ff d0                	call   *%eax
    7588:	e9 45 01 00 00       	jmp    76d2 <add_timer+0x172>
	else {
		// 否则从定时器数组中,找一个空闲项.
		for (p = timer_list ; p < timer_list + TIME_REQUESTS ; p++)
    758d:	8d 83 c0 1b 00 00    	lea    0x1bc0(%ebx),%eax
    7593:	89 44 24 0c          	mov    %eax,0xc(%esp)
    7597:	eb 10                	jmp    75a9 <add_timer+0x49>
			if (!p->fn)
    7599:	8b 44 24 0c          	mov    0xc(%esp),%eax
    759d:	8b 40 04             	mov    0x4(%eax),%eax
    75a0:	85 c0                	test   %eax,%eax
    75a2:	74 13                	je     75b7 <add_timer+0x57>
		for (p = timer_list ; p < timer_list + TIME_REQUESTS ; p++)
    75a4:	83 44 24 0c 0c       	addl   $0xc,0xc(%esp)
    75a9:	8d 83 c0 1e 00 00    	lea    0x1ec0(%ebx),%eax
    75af:	39 44 24 0c          	cmp    %eax,0xc(%esp)
    75b3:	72 e4                	jb     7599 <add_timer+0x39>
    75b5:	eb 01                	jmp    75b8 <add_timer+0x58>
				break;
    75b7:	90                   	nop
		// 如果已经用完了定时器数组,则系统崩溃.否则向定时器数据结构填入就信息,并链入链表头.
		if (p >= timer_list + TIME_REQUESTS)
    75b8:	8d 83 c0 1e 00 00    	lea    0x1ec0(%ebx),%eax
    75be:	39 44 24 0c          	cmp    %eax,0xc(%esp)
    75c2:	72 12                	jb     75d6 <add_timer+0x76>
			panic("No more time requests free");
    75c4:	83 ec 0c             	sub    $0xc,%esp
    75c7:	8d 83 3b 42 ff ff    	lea    -0xbdc5(%ebx),%eax
    75cd:	50                   	push   %eax
    75ce:	e8 0b 1d 00 00       	call   92de <panic>
    75d3:	83 c4 10             	add    $0x10,%esp
		p->fn = fn;
    75d6:	8b 44 24 0c          	mov    0xc(%esp),%eax
    75da:	8b 54 24 24          	mov    0x24(%esp),%edx
    75de:	89 50 04             	mov    %edx,0x4(%eax)
		p->jiffies = jiffies;
    75e1:	8b 44 24 0c          	mov    0xc(%esp),%eax
    75e5:	8b 54 24 20          	mov    0x20(%esp),%edx
    75e9:	89 10                	mov    %edx,(%eax)
		p->next = next_timer;
    75eb:	8b 93 c0 1e 00 00    	mov    0x1ec0(%ebx),%edx
    75f1:	8b 44 24 0c          	mov    0xc(%esp),%eax
    75f5:	89 50 08             	mov    %edx,0x8(%eax)
		next_timer = p;
    75f8:	8b 44 24 0c          	mov    0xc(%esp),%eax
    75fc:	89 83 c0 1e 00 00    	mov    %eax,0x1ec0(%ebx)
		// 链表项按定时值从小到大排序.在排序时减去排在前面需要的滴答数,这样在处理定时器时只要查看链表头的第一项的定时是否到期即可.
		// [[?? 这段程序好像没有考虑周全.如果新插入的定时器值小于原来关一个定时器值时则根本没会进入循环中,但此时还是应该将紧随后面
		// 的一个定时器值减去新的第1个的定时值.即如果第1个定时值<=第2个,则第2个定时值扣除第1个的值即可,否则进入下面循环中进行处理.]]
		while (p->next && p->next->jiffies < p->jiffies) {
    7602:	eb 72                	jmp    7676 <add_timer+0x116>
			p->jiffies -= p->next->jiffies;
    7604:	8b 44 24 0c          	mov    0xc(%esp),%eax
    7608:	8b 10                	mov    (%eax),%edx
    760a:	8b 44 24 0c          	mov    0xc(%esp),%eax
    760e:	8b 40 08             	mov    0x8(%eax),%eax
    7611:	8b 00                	mov    (%eax),%eax
    7613:	29 c2                	sub    %eax,%edx
    7615:	8b 44 24 0c          	mov    0xc(%esp),%eax
    7619:	89 10                	mov    %edx,(%eax)
			fn = p->fn;
    761b:	8b 44 24 0c          	mov    0xc(%esp),%eax
    761f:	8b 40 04             	mov    0x4(%eax),%eax
    7622:	89 44 24 24          	mov    %eax,0x24(%esp)
			p->fn = p->next->fn;
    7626:	8b 44 24 0c          	mov    0xc(%esp),%eax
    762a:	8b 40 08             	mov    0x8(%eax),%eax
    762d:	8b 50 04             	mov    0x4(%eax),%edx
    7630:	8b 44 24 0c          	mov    0xc(%esp),%eax
    7634:	89 50 04             	mov    %edx,0x4(%eax)
			p->next->fn = fn;
    7637:	8b 44 24 0c          	mov    0xc(%esp),%eax
    763b:	8b 40 08             	mov    0x8(%eax),%eax
    763e:	8b 54 24 24          	mov    0x24(%esp),%edx
    7642:	89 50 04             	mov    %edx,0x4(%eax)
			jiffies = p->jiffies;
    7645:	8b 44 24 0c          	mov    0xc(%esp),%eax
    7649:	8b 00                	mov    (%eax),%eax
    764b:	89 44 24 20          	mov    %eax,0x20(%esp)
			p->jiffies = p->next->jiffies;
    764f:	8b 44 24 0c          	mov    0xc(%esp),%eax
    7653:	8b 40 08             	mov    0x8(%eax),%eax
    7656:	8b 10                	mov    (%eax),%edx
    7658:	8b 44 24 0c          	mov    0xc(%esp),%eax
    765c:	89 10                	mov    %edx,(%eax)
			p->next->jiffies = jiffies;
    765e:	8b 44 24 0c          	mov    0xc(%esp),%eax
    7662:	8b 40 08             	mov    0x8(%eax),%eax
    7665:	8b 54 24 20          	mov    0x20(%esp),%edx
    7669:	89 10                	mov    %edx,(%eax)
			p = p->next;
    766b:	8b 44 24 0c          	mov    0xc(%esp),%eax
    766f:	8b 40 08             	mov    0x8(%eax),%eax
    7672:	89 44 24 0c          	mov    %eax,0xc(%esp)
		while (p->next && p->next->jiffies < p->jiffies) {
    7676:	8b 44 24 0c          	mov    0xc(%esp),%eax
    767a:	8b 40 08             	mov    0x8(%eax),%eax
    767d:	85 c0                	test   %eax,%eax
    767f:	74 17                	je     7698 <add_timer+0x138>
    7681:	8b 44 24 0c          	mov    0xc(%esp),%eax
    7685:	8b 40 08             	mov    0x8(%eax),%eax
    7688:	8b 10                	mov    (%eax),%edx
    768a:	8b 44 24 0c          	mov    0xc(%esp),%eax
    768e:	8b 00                	mov    (%eax),%eax
    7690:	39 c2                	cmp    %eax,%edx
    7692:	0f 8c 6c ff ff ff    	jl     7604 <add_timer+0xa4>
		}
		// 修正上述问题.
		if(p->next && p->next->jiffies >= p->jiffies) {
    7698:	8b 44 24 0c          	mov    0xc(%esp),%eax
    769c:	8b 40 08             	mov    0x8(%eax),%eax
    769f:	85 c0                	test   %eax,%eax
    76a1:	74 2f                	je     76d2 <add_timer+0x172>
    76a3:	8b 44 24 0c          	mov    0xc(%esp),%eax
    76a7:	8b 40 08             	mov    0x8(%eax),%eax
    76aa:	8b 10                	mov    (%eax),%edx
    76ac:	8b 44 24 0c          	mov    0xc(%esp),%eax
    76b0:	8b 00                	mov    (%eax),%eax
    76b2:	39 c2                	cmp    %eax,%edx
    76b4:	7c 1c                	jl     76d2 <add_timer+0x172>
			p->next->jiffies -= p->jiffies;
    76b6:	8b 44 24 0c          	mov    0xc(%esp),%eax
    76ba:	8b 40 08             	mov    0x8(%eax),%eax
    76bd:	8b 08                	mov    (%eax),%ecx
    76bf:	8b 44 24 0c          	mov    0xc(%esp),%eax
    76c3:	8b 10                	mov    (%eax),%edx
    76c5:	8b 44 24 0c          	mov    0xc(%esp),%eax
    76c9:	8b 40 08             	mov    0x8(%eax),%eax
    76cc:	29 d1                	sub    %edx,%ecx
    76ce:	89 ca                	mov    %ecx,%edx
    76d0:	89 10                	mov    %edx,(%eax)
		}
	}
	sti();
    76d2:	fb                   	sti    
    76d3:	eb 01                	jmp    76d6 <add_timer+0x176>
		return;
    76d5:	90                   	nop
}
    76d6:	83 c4 18             	add    $0x18,%esp
    76d9:	5b                   	pop    %ebx
    76da:	c3                   	ret    

000076db <do_timer>:

// 时钟中断C函数处理程序,在sys_call.s中的timer_interrupt被调用.
// 参数cpl是当前特权级0或3,是时钟中断发生时正被执行的代码选择符中的特权级.cpl=0时表示中断发生时正在执行内核代码,cpl=3时表示中断发生时正在执行用户
// 代码.对于一个进程由于执行时间片用完时,则进行任务切换.并执行一个计时更新工作.
void do_timer(long cpl)
{
    76db:	53                   	push   %ebx
    76dc:	83 ec 18             	sub    $0x18,%esp
    76df:	e8 16 f6 ff ff       	call   6cfa <__x86.get_pc_thunk.bx>
    76e4:	81 c3 1c a9 02 00    	add    $0x2a91c,%ebx
	static int blanked = 0;

	// 首先判断是否经过了一定时间而让屏幕黑屏(blankcount).如果blankcount计数不为零,或者黑屏延时间隔时间blankinterval为0的话,那么若已经处理黑屏状态
	// (黑屏标志blanked=1),则让屏幕恢复显示.若blnkcount计数不为零,则递减之,并且复位黑屏标志.
	if (blankcount || !blankinterval) {
    76ea:	c7 c0 a8 3e 04 00    	mov    $0x43ea8,%eax
    76f0:	8b 00                	mov    (%eax),%eax
    76f2:	85 c0                	test   %eax,%eax
    76f4:	75 0c                	jne    7702 <do_timer+0x27>
    76f6:	c7 c0 a4 3e 04 00    	mov    $0x43ea4,%eax
    76fc:	8b 00                	mov    (%eax),%eax
    76fe:	85 c0                	test   %eax,%eax
    7700:	75 3a                	jne    773c <do_timer+0x61>
		if (blanked)
    7702:	8b 83 c4 1e 00 00    	mov    0x1ec4(%ebx),%eax
    7708:	85 c0                	test   %eax,%eax
    770a:	74 05                	je     7711 <do_timer+0x36>
			unblank_screen();
    770c:	e8 05 8a 01 00       	call   20116 <unblank_screen>
		if (blankcount)
    7711:	c7 c0 a8 3e 04 00    	mov    $0x43ea8,%eax
    7717:	8b 00                	mov    (%eax),%eax
    7719:	85 c0                	test   %eax,%eax
    771b:	74 13                	je     7730 <do_timer+0x55>
			blankcount--;
    771d:	c7 c0 a8 3e 04 00    	mov    $0x43ea8,%eax
    7723:	8b 00                	mov    (%eax),%eax
    7725:	8d 50 ff             	lea    -0x1(%eax),%edx
    7728:	c7 c0 a8 3e 04 00    	mov    $0x43ea8,%eax
    772e:	89 10                	mov    %edx,(%eax)
		blanked = 0;
    7730:	c7 83 c4 1e 00 00 00 	movl   $0x0,0x1ec4(%ebx)
    7737:	00 00 00 
    773a:	eb 19                	jmp    7755 <do_timer+0x7a>
	// 否则的话若黑屏标志末置位,则让屏幕黑屏,并且设置黑屏标志.
	} else if (!blanked) {
    773c:	8b 83 c4 1e 00 00    	mov    0x1ec4(%ebx),%eax
    7742:	85 c0                	test   %eax,%eax
    7744:	75 0f                	jne    7755 <do_timer+0x7a>
		blank_screen();
    7746:	e8 ab 89 01 00       	call   200f6 <blank_screen>
		blanked = 1;
    774b:	c7 83 c4 1e 00 00 01 	movl   $0x1,0x1ec4(%ebx)
    7752:	00 00 00 
	}
	// 接着处理硬盘操作超时问题.如果硬盘超时计数递减之后为0,则进行硬盘访问超时处理.
	if (hd_timeout)
    7755:	c7 c0 04 62 03 00    	mov    $0x36204,%eax
    775b:	8b 00                	mov    (%eax),%eax
    775d:	85 c0                	test   %eax,%eax
    775f:	74 24                	je     7785 <do_timer+0xaa>
		if (!--hd_timeout)
    7761:	c7 c0 04 62 03 00    	mov    $0x36204,%eax
    7767:	8b 00                	mov    (%eax),%eax
    7769:	8d 50 ff             	lea    -0x1(%eax),%edx
    776c:	c7 c0 04 62 03 00    	mov    $0x36204,%eax
    7772:	89 10                	mov    %edx,(%eax)
    7774:	c7 c0 04 62 03 00    	mov    $0x36204,%eax
    777a:	8b 00                	mov    (%eax),%eax
    777c:	85 c0                	test   %eax,%eax
    777e:	75 05                	jne    7785 <do_timer+0xaa>
			hd_times_out();							// 硬盘访问超时处理(blk_drv/hd.c).
    7780:	e8 03 29 01 00       	call   1a088 <hd_times_out>

	// 如果发声计数次数到,则关闭发声.(向0x61口发送命令,复位位0和1.位0控制8253计数器2的工作,位1控制扬声器.
	if (beepcount)									// 扬声器发声时间滴答数(chr_drv/console.c)
    7785:	c7 c0 ac 3e 04 00    	mov    $0x43eac,%eax
    778b:	8b 00                	mov    (%eax),%eax
    778d:	85 c0                	test   %eax,%eax
    778f:	74 24                	je     77b5 <do_timer+0xda>
		if (!--beepcount)
    7791:	c7 c0 ac 3e 04 00    	mov    $0x43eac,%eax
    7797:	8b 00                	mov    (%eax),%eax
    7799:	8d 50 ff             	lea    -0x1(%eax),%edx
    779c:	c7 c0 ac 3e 04 00    	mov    $0x43eac,%eax
    77a2:	89 10                	mov    %edx,(%eax)
    77a4:	c7 c0 ac 3e 04 00    	mov    $0x43eac,%eax
    77aa:	8b 00                	mov    (%eax),%eax
    77ac:	85 c0                	test   %eax,%eax
    77ae:	75 05                	jne    77b5 <do_timer+0xda>
			sysbeepstop();
    77b0:	e8 c8 87 01 00       	call   1ff7d <sysbeepstop>

	// 如果当前特权级(cpl)为0(最高,表示是内核程序在工作),则将内核代码时间stime递增;[Linus把内核程序统称为超级用户(superviser)的
	// 程序.这种称呼来自Intel CPU手册.]如果cpl>0,则表示是一般用户程序在工作,增加utime.
	if (cpl)
    77b5:	83 7c 24 20 00       	cmpl   $0x0,0x20(%esp)
    77ba:	74 17                	je     77d3 <do_timer+0xf8>
		current->utime++;
    77bc:	8b 83 80 12 00 00    	mov    0x1280(%ebx),%eax
    77c2:	8b 90 e0 02 00 00    	mov    0x2e0(%eax),%edx
    77c8:	83 c2 01             	add    $0x1,%edx
    77cb:	89 90 e0 02 00 00    	mov    %edx,0x2e0(%eax)
    77d1:	eb 15                	jmp    77e8 <do_timer+0x10d>
	else
		current->stime++;
    77d3:	8b 83 80 12 00 00    	mov    0x1280(%ebx),%eax
    77d9:	8b 90 e4 02 00 00    	mov    0x2e4(%eax),%edx
    77df:	83 c2 01             	add    $0x1,%edx
    77e2:	89 90 e4 02 00 00    	mov    %edx,0x2e4(%eax)

	// 如果有定时器存在,则将链表第1个定时器的值减1.如果已等于0,则调用相应的处理程序,并将该处理程序指针置空.然后去掉该项定时器.next_timer是
	// 定时器链表的头指针.
	if (next_timer) {
    77e8:	8b 83 c0 1e 00 00    	mov    0x1ec0(%ebx),%eax
    77ee:	85 c0                	test   %eax,%eax
    77f0:	74 54                	je     7846 <do_timer+0x16b>
		next_timer->jiffies--;
    77f2:	8b 83 c0 1e 00 00    	mov    0x1ec0(%ebx),%eax
    77f8:	8b 10                	mov    (%eax),%edx
    77fa:	83 ea 01             	sub    $0x1,%edx
    77fd:	89 10                	mov    %edx,(%eax)
		while (next_timer && next_timer->jiffies <= 0) {
    77ff:	eb 2f                	jmp    7830 <do_timer+0x155>
			void (*fn)(void);						// 这里插入了一个函数指针定义!!

			fn = next_timer->fn;
    7801:	8b 83 c0 1e 00 00    	mov    0x1ec0(%ebx),%eax
    7807:	8b 40 04             	mov    0x4(%eax),%eax
    780a:	89 44 24 0c          	mov    %eax,0xc(%esp)
			next_timer->fn = NULL;
    780e:	8b 83 c0 1e 00 00    	mov    0x1ec0(%ebx),%eax
    7814:	c7 40 04 00 00 00 00 	movl   $0x0,0x4(%eax)
			next_timer = next_timer->next;
    781b:	8b 83 c0 1e 00 00    	mov    0x1ec0(%ebx),%eax
    7821:	8b 40 08             	mov    0x8(%eax),%eax
    7824:	89 83 c0 1e 00 00    	mov    %eax,0x1ec0(%ebx)
			(fn)();									// 调用定时处理函数.
    782a:	8b 44 24 0c          	mov    0xc(%esp),%eax
    782e:	ff d0                	call   *%eax
		while (next_timer && next_timer->jiffies <= 0) {
    7830:	8b 83 c0 1e 00 00    	mov    0x1ec0(%ebx),%eax
    7836:	85 c0                	test   %eax,%eax
    7838:	74 0c                	je     7846 <do_timer+0x16b>
    783a:	8b 83 c0 1e 00 00    	mov    0x1ec0(%ebx),%eax
    7840:	8b 00                	mov    (%eax),%eax
    7842:	85 c0                	test   %eax,%eax
    7844:	7e bb                	jle    7801 <do_timer+0x126>
		}
	}
	// 如果当前软盘控制器FDC的数字输出寄存器中马达启动位有置位的,则执行软盘定时程序.
	if (current_DOR & 0xf0)
    7846:	0f b6 83 64 00 00 00 	movzbl 0x64(%ebx),%eax
    784d:	0f b6 c0             	movzbl %al,%eax
    7850:	25 f0 00 00 00       	and    $0xf0,%eax
    7855:	85 c0                	test   %eax,%eax
    7857:	74 05                	je     785e <do_timer+0x183>
		do_floppy_timer();
    7859:	e8 0a fc ff ff       	call   7468 <do_floppy_timer>
	// 如果进程运行时间还没完,则退出.否则置当前任务运行计数值为0.并且若发生时钟中断时正在内核代码中运行则返回,否则调用执行调试函数.
	if ((--current->counter) > 0) return;
    785e:	8b 83 80 12 00 00    	mov    0x1280(%ebx),%eax
    7864:	8b 50 04             	mov    0x4(%eax),%edx
    7867:	83 ea 01             	sub    $0x1,%edx
    786a:	89 50 04             	mov    %edx,0x4(%eax)
    786d:	8b 40 04             	mov    0x4(%eax),%eax
    7870:	85 c0                	test   %eax,%eax
    7872:	7f 1b                	jg     788f <do_timer+0x1b4>
	current->counter = 0;
    7874:	8b 83 80 12 00 00    	mov    0x1280(%ebx),%eax
    787a:	c7 40 04 00 00 00 00 	movl   $0x0,0x4(%eax)
	if (!cpl) return;								// 对于内核态程序,不信赖counter值进行调试.
    7881:	83 7c 24 20 00       	cmpl   $0x0,0x20(%esp)
    7886:	74 0a                	je     7892 <do_timer+0x1b7>
	schedule();
    7888:	e8 be f6 ff ff       	call   6f4b <schedule>
    788d:	eb 04                	jmp    7893 <do_timer+0x1b8>
	if ((--current->counter) > 0) return;
    788f:	90                   	nop
    7890:	eb 01                	jmp    7893 <do_timer+0x1b8>
	if (!cpl) return;								// 对于内核态程序,不信赖counter值进行调试.
    7892:	90                   	nop
}
    7893:	83 c4 18             	add    $0x18,%esp
    7896:	5b                   	pop    %ebx
    7897:	c3                   	ret    

00007898 <sys_alarm>:
// 进程数据结构中报警定时值alarm的单位是系统滴答（1滴答为10毫秒），它是系统开机起到设置定时操作时系统滴答值jiffies和转换成滴答
// 单位的定时值之和，即'jiffies + HZ*定时秒值'。而参数给出的是以秒为单位的定时值，因此本函数的主要操作是进行两个单位的转换。
// 其中常数HZ = 100,是内核系统运行频率。定义在inlucde/sched.h上。
// 参数seconds是新的定时时间值，单位是秒。
int sys_alarm(long seconds)
{
    7898:	83 ec 10             	sub    $0x10,%esp
    789b:	e8 97 51 00 00       	call   ca37 <__x86.get_pc_thunk.cx>
    78a0:	81 c1 60 a7 02 00    	add    $0x2a760,%ecx
	int old = current->alarm;
    78a6:	8b 81 80 12 00 00    	mov    0x1280(%ecx),%eax
    78ac:	8b 80 dc 02 00 00    	mov    0x2dc(%eax),%eax
    78b2:	89 44 24 0c          	mov    %eax,0xc(%esp)

	if (old)
    78b6:	83 7c 24 0c 00       	cmpl   $0x0,0xc(%esp)
    78bb:	74 1e                	je     78db <sys_alarm+0x43>
		old = (old - jiffies) / HZ;
    78bd:	8b 54 24 0c          	mov    0xc(%esp),%edx
    78c1:	8b 81 80 1b 00 00    	mov    0x1b80(%ecx),%eax
    78c7:	29 c2                	sub    %eax,%edx
    78c9:	89 d0                	mov    %edx,%eax
    78cb:	ba 1f 85 eb 51       	mov    $0x51eb851f,%edx
    78d0:	f7 e2                	mul    %edx
    78d2:	89 d0                	mov    %edx,%eax
    78d4:	c1 e8 05             	shr    $0x5,%eax
    78d7:	89 44 24 0c          	mov    %eax,0xc(%esp)
	current->alarm = (seconds>0)?(jiffies+HZ*seconds):0;
    78db:	83 7c 24 14 00       	cmpl   $0x0,0x14(%esp)
    78e0:	7e 13                	jle    78f5 <sys_alarm+0x5d>
    78e2:	8b 44 24 14          	mov    0x14(%esp),%eax
    78e6:	6b c0 64             	imul   $0x64,%eax,%eax
    78e9:	89 c2                	mov    %eax,%edx
    78eb:	8b 81 80 1b 00 00    	mov    0x1b80(%ecx),%eax
    78f1:	01 c2                	add    %eax,%edx
    78f3:	eb 05                	jmp    78fa <sys_alarm+0x62>
    78f5:	ba 00 00 00 00       	mov    $0x0,%edx
    78fa:	8b 81 80 12 00 00    	mov    0x1280(%ecx),%eax
    7900:	89 90 dc 02 00 00    	mov    %edx,0x2dc(%eax)
	return (old);
    7906:	8b 44 24 0c          	mov    0xc(%esp),%eax
}
    790a:	83 c4 10             	add    $0x10,%esp
    790d:	c3                   	ret    

0000790e <sys_getpid>:

// 取当前进程号pid。
int sys_getpid(void)
{
    790e:	e8 df f3 ff ff       	call   6cf2 <__x86.get_pc_thunk.ax>
    7913:	05 ed a6 02 00       	add    $0x2a6ed,%eax
	return current->pid;
    7918:	8b 80 80 12 00 00    	mov    0x1280(%eax),%eax
    791e:	8b 80 2c 02 00 00    	mov    0x22c(%eax),%eax
}
    7924:	c3                   	ret    

00007925 <sys_getppid>:

// 取父进程号ppid。
int sys_getppid(void)
{
    7925:	e8 c8 f3 ff ff       	call   6cf2 <__x86.get_pc_thunk.ax>
    792a:	05 d6 a6 02 00       	add    $0x2a6d6,%eax
	return current->p_pptr->pid;
    792f:	8b 80 80 12 00 00    	mov    0x1280(%eax),%eax
    7935:	8b 80 bc 02 00 00    	mov    0x2bc(%eax),%eax
    793b:	8b 80 2c 02 00 00    	mov    0x22c(%eax),%eax
}
    7941:	c3                   	ret    

00007942 <sys_getuid>:

// 取用户uid。
int sys_getuid(void)
{
    7942:	e8 ab f3 ff ff       	call   6cf2 <__x86.get_pc_thunk.ax>
    7947:	05 b9 a6 02 00       	add    $0x2a6b9,%eax
	return current->uid;
    794c:	8b 80 80 12 00 00    	mov    0x1280(%eax),%eax
    7952:	0f b7 80 cc 02 00 00 	movzwl 0x2cc(%eax),%eax
    7959:	0f b7 c0             	movzwl %ax,%eax
}
    795c:	c3                   	ret    

0000795d <sys_geteuid>:

// 取有效的用户号euid。
int sys_geteuid(void)
{
    795d:	e8 90 f3 ff ff       	call   6cf2 <__x86.get_pc_thunk.ax>
    7962:	05 9e a6 02 00       	add    $0x2a69e,%eax
	return current->euid;
    7967:	8b 80 80 12 00 00    	mov    0x1280(%eax),%eax
    796d:	0f b7 80 ce 02 00 00 	movzwl 0x2ce(%eax),%eax
    7974:	0f b7 c0             	movzwl %ax,%eax
}
    7977:	c3                   	ret    

00007978 <sys_getgid>:

// 取组号gid。
int sys_getgid(void)
{
    7978:	e8 75 f3 ff ff       	call   6cf2 <__x86.get_pc_thunk.ax>
    797d:	05 83 a6 02 00       	add    $0x2a683,%eax
	return current->gid;
    7982:	8b 80 80 12 00 00    	mov    0x1280(%eax),%eax
    7988:	0f b7 80 d2 02 00 00 	movzwl 0x2d2(%eax),%eax
    798f:	0f b7 c0             	movzwl %ax,%eax
}
    7992:	c3                   	ret    

00007993 <sys_getegid>:

// 取有效的组号egid。
int sys_getegid(void)
{
    7993:	e8 5a f3 ff ff       	call   6cf2 <__x86.get_pc_thunk.ax>
    7998:	05 68 a6 02 00       	add    $0x2a668,%eax
	return current->egid;
    799d:	8b 80 80 12 00 00    	mov    0x1280(%eax),%eax
    79a3:	0f b7 80 d4 02 00 00 	movzwl 0x2d4(%eax),%eax
    79aa:	0f b7 c0             	movzwl %ax,%eax
}
    79ad:	c3                   	ret    

000079ae <sys_nice>:

// 系统调用功能 -- 降低对CPU的使用优先权（有人会用吗？）。
// 应该限制increment为大于0的值，否则可使优先仅增大！！
int sys_nice(long increment)
{
    79ae:	e8 3f f3 ff ff       	call   6cf2 <__x86.get_pc_thunk.ax>
    79b3:	05 4d a6 02 00       	add    $0x2a64d,%eax
	if (current->priority-increment > 0)
    79b8:	8b 90 80 12 00 00    	mov    0x1280(%eax),%edx
    79be:	8b 52 08             	mov    0x8(%edx),%edx
    79c1:	2b 54 24 04          	sub    0x4(%esp),%edx
    79c5:	85 d2                	test   %edx,%edx
    79c7:	7e 16                	jle    79df <sys_nice+0x31>
		current->priority -= increment;
    79c9:	8b 90 80 12 00 00    	mov    0x1280(%eax),%edx
    79cf:	8b 52 08             	mov    0x8(%edx),%edx
    79d2:	8b 80 80 12 00 00    	mov    0x1280(%eax),%eax
    79d8:	2b 54 24 04          	sub    0x4(%esp),%edx
    79dc:	89 50 08             	mov    %edx,0x8(%eax)
	return 0;
    79df:	b8 00 00 00 00       	mov    $0x0,%eax
}
    79e4:	c3                   	ret    

000079e5 <sched_init>:

// 内核调度程序的初始化子程序
void sched_init(void)
{
    79e5:	55                   	push   %ebp
    79e6:	57                   	push   %edi
    79e7:	56                   	push   %esi
    79e8:	53                   	push   %ebx
    79e9:	83 ec 18             	sub    $0x18,%esp
    79ec:	e8 01 f3 ff ff       	call   6cf2 <__x86.get_pc_thunk.ax>
    79f1:	05 0f a6 02 00       	add    $0x2a60f,%eax
    79f6:	89 04 24             	mov    %eax,(%esp)
		panic("Struct sigaction MUST be 16 bytes");
	// 在全局描述符表中设置初始任务(任务0)的任务状态段描述符和局部数据表描述符.
	// FIRST_TSS_ENTRY和FIRST_LDT_ENTRY的值分别是4和5,定义在include/linux/sched.h中.gdt是一个描述符表数组(include/linux/head.h),
	// 实际上对应程序head.s中的他已描述符表基址(gdt).因此gdt+FIRST_TSS_ENTRY即为gdt[FIRST_TSS_ENTRY](即是gdt[4]),即gdt数组第4项的地址
	// 参见include/asm/system.h
	set_tss_desc(gdt + FIRST_TSS_ENTRY, &(init_task.task.tss));
    79f9:	8b 04 24             	mov    (%esp),%eax
    79fc:	c7 c0 b8 5c 00 00    	mov    $0x5cb8,%eax
    7a02:	8d 40 20             	lea    0x20(%eax),%eax
    7a05:	89 c5                	mov    %eax,%ebp
    7a07:	8b 04 24             	mov    (%esp),%eax
    7a0a:	c7 c0 b8 5c 00 00    	mov    $0x5cb8,%eax
    7a10:	8d 40 22             	lea    0x22(%eax),%eax
    7a13:	89 c6                	mov    %eax,%esi
    7a15:	8b 04 24             	mov    (%esp),%eax
    7a18:	c7 c0 b8 5c 00 00    	mov    $0x5cb8,%eax
    7a1e:	8d 40 24             	lea    0x24(%eax),%eax
    7a21:	89 c7                	mov    %eax,%edi
    7a23:	8b 04 24             	mov    (%esp),%eax
    7a26:	c7 c0 b8 5c 00 00    	mov    $0x5cb8,%eax
    7a2c:	8d 40 25             	lea    0x25(%eax),%eax
    7a2f:	89 44 24 04          	mov    %eax,0x4(%esp)
    7a33:	8b 04 24             	mov    (%esp),%eax
    7a36:	c7 c0 b8 5c 00 00    	mov    $0x5cb8,%eax
    7a3c:	8d 40 26             	lea    0x26(%eax),%eax
    7a3f:	89 c3                	mov    %eax,%ebx
    7a41:	8b 04 24             	mov    (%esp),%eax
    7a44:	c7 c0 b8 5c 00 00    	mov    $0x5cb8,%eax
    7a4a:	8d 40 27             	lea    0x27(%eax),%eax
    7a4d:	8b 0c 24             	mov    (%esp),%ecx
    7a50:	8d 91 10 06 00 00    	lea    0x610(%ecx),%edx
    7a56:	89 d1                	mov    %edx,%ecx
    7a58:	89 c2                	mov    %eax,%edx
    7a5a:	89 c8                	mov    %ecx,%eax
    7a5c:	89 d9                	mov    %ebx,%ecx
    7a5e:	89 f3                	mov    %esi,%ebx
    7a60:	89 fe                	mov    %edi,%esi
    7a62:	89 ef                	mov    %ebp,%edi
    7a64:	8b 6c 24 04          	mov    0x4(%esp),%ebp
    7a68:	66 c7 07 68 00       	movw   $0x68,(%edi)
    7a6d:	66 89 03             	mov    %ax,(%ebx)
    7a70:	c1 c8 10             	ror    $0x10,%eax
    7a73:	88 06                	mov    %al,(%esi)
    7a75:	c6 45 00 89          	movb   $0x89,0x0(%ebp)
    7a79:	c6 01 00             	movb   $0x0,(%ecx)
    7a7c:	88 22                	mov    %ah,(%edx)
    7a7e:	c1 c8 10             	ror    $0x10,%eax
	set_ldt_desc(gdt + FIRST_LDT_ENTRY, &(init_task.task.ldt));
    7a81:	8b 04 24             	mov    (%esp),%eax
    7a84:	c7 c0 b8 5c 00 00    	mov    $0x5cb8,%eax
    7a8a:	8d 40 28             	lea    0x28(%eax),%eax
    7a8d:	89 c5                	mov    %eax,%ebp
    7a8f:	8b 04 24             	mov    (%esp),%eax
    7a92:	c7 c0 b8 5c 00 00    	mov    $0x5cb8,%eax
    7a98:	8d 40 2a             	lea    0x2a(%eax),%eax
    7a9b:	89 c6                	mov    %eax,%esi
    7a9d:	8b 04 24             	mov    (%esp),%eax
    7aa0:	c7 c0 b8 5c 00 00    	mov    $0x5cb8,%eax
    7aa6:	8d 40 2c             	lea    0x2c(%eax),%eax
    7aa9:	89 c7                	mov    %eax,%edi
    7aab:	8b 04 24             	mov    (%esp),%eax
    7aae:	c7 c0 b8 5c 00 00    	mov    $0x5cb8,%eax
    7ab4:	8d 40 2d             	lea    0x2d(%eax),%eax
    7ab7:	89 44 24 04          	mov    %eax,0x4(%esp)
    7abb:	8b 04 24             	mov    (%esp),%eax
    7abe:	c7 c0 b8 5c 00 00    	mov    $0x5cb8,%eax
    7ac4:	8d 40 2e             	lea    0x2e(%eax),%eax
    7ac7:	89 c3                	mov    %eax,%ebx
    7ac9:	8b 04 24             	mov    (%esp),%eax
    7acc:	c7 c0 b8 5c 00 00    	mov    $0x5cb8,%eax
    7ad2:	8d 40 2f             	lea    0x2f(%eax),%eax
    7ad5:	8b 0c 24             	mov    (%esp),%ecx
    7ad8:	8d 91 f8 05 00 00    	lea    0x5f8(%ecx),%edx
    7ade:	89 d1                	mov    %edx,%ecx
    7ae0:	89 c2                	mov    %eax,%edx
    7ae2:	89 c8                	mov    %ecx,%eax
    7ae4:	89 d9                	mov    %ebx,%ecx
    7ae6:	89 f3                	mov    %esi,%ebx
    7ae8:	89 fe                	mov    %edi,%esi
    7aea:	89 ef                	mov    %ebp,%edi
    7aec:	8b 6c 24 04          	mov    0x4(%esp),%ebp
    7af0:	66 c7 07 68 00       	movw   $0x68,(%edi)
    7af5:	66 89 03             	mov    %ax,(%ebx)
    7af8:	c1 c8 10             	ror    $0x10,%eax
    7afb:	88 06                	mov    %al,(%esi)
    7afd:	c6 45 00 82          	movb   $0x82,0x0(%ebp)
    7b01:	c6 01 00             	movb   $0x0,(%ecx)
    7b04:	88 22                	mov    %ah,(%edx)
    7b06:	c1 c8 10             	ror    $0x10,%eax
	// 清任务数组和描述符表项(注意i=1开始,所以初始任务的描述符还在).描述符项结构定义在文件include/linux/head.h中.
	p = gdt + 2 + FIRST_TSS_ENTRY;
    7b09:	8b 04 24             	mov    (%esp),%eax
    7b0c:	c7 c0 b8 5c 00 00    	mov    $0x5cb8,%eax
    7b12:	8d 40 30             	lea    0x30(%eax),%eax
    7b15:	89 44 24 10          	mov    %eax,0x10(%esp)
	// 初始化除进程一以外的其他进程指针
	for(i = 1; i < NR_TASKS; i++) {
    7b19:	c7 44 24 14 01 00 00 	movl   $0x1,0x14(%esp)
    7b20:	00 
    7b21:	eb 51                	jmp    7b74 <sched_init+0x18f>
		task[i] = NULL;
    7b23:	8b 44 24 14          	mov    0x14(%esp),%eax
    7b27:	8b 0c 24             	mov    (%esp),%ecx
    7b2a:	c7 84 81 a0 12 00 00 	movl   $0x0,0x12a0(%ecx,%eax,4)
    7b31:	00 00 00 00 
		p->a = p->b = 0;
    7b35:	8b 44 24 10          	mov    0x10(%esp),%eax
    7b39:	c7 40 04 00 00 00 00 	movl   $0x0,0x4(%eax)
    7b40:	8b 44 24 10          	mov    0x10(%esp),%eax
    7b44:	8b 50 04             	mov    0x4(%eax),%edx
    7b47:	8b 44 24 10          	mov    0x10(%esp),%eax
    7b4b:	89 10                	mov    %edx,(%eax)
		p++;
    7b4d:	83 44 24 10 08       	addl   $0x8,0x10(%esp)
		p->a = p->b = 0;
    7b52:	8b 44 24 10          	mov    0x10(%esp),%eax
    7b56:	c7 40 04 00 00 00 00 	movl   $0x0,0x4(%eax)
    7b5d:	8b 44 24 10          	mov    0x10(%esp),%eax
    7b61:	8b 50 04             	mov    0x4(%eax),%edx
    7b64:	8b 44 24 10          	mov    0x10(%esp),%eax
    7b68:	89 10                	mov    %edx,(%eax)
		p++;
    7b6a:	83 44 24 10 08       	addl   $0x8,0x10(%esp)
	for(i = 1; i < NR_TASKS; i++) {
    7b6f:	83 44 24 14 01       	addl   $0x1,0x14(%esp)
    7b74:	83 7c 24 14 3f       	cmpl   $0x3f,0x14(%esp)
    7b79:	7e a8                	jle    7b23 <sched_init+0x13e>
	}
	/* Clear NT, so that we won't have troubles with that later on */
	/* 清除标志寄存器中的位NT,这样以后就不会有麻烦 */
	// EFLAGS中的NT标志位用于控制任务的嵌套调用.当NT位置位时,那么当前中断任务执行IRET指令时就会引起任务切换.NT指出TSS中的back_link字段是否有效.
	// NT=0时无效.
	__asm__("pushfl ; andl $0xffffbfff,(%esp) ; popfl");
    7b7b:	9c                   	pushf  
    7b7c:	81 24 24 ff bf ff ff 	andl   $0xffffbfff,(%esp)
    7b83:	9d                   	popf   
	// 将任务0的TSS段选择符加载到任务寄存器tr.将局部描述符表段选择符加载到局部描述符表寄存器ldtr中.注意!!是将GDT中相应LDT描述符的选择符加载到ldtr.
	// 只明确加这一次,以后新任务LDT的加载,是CPU根据TSS中的LDT项自动加载.
	ltr(0);								// 定义在include/linux/sched.h
    7b84:	b8 20 00 00 00       	mov    $0x20,%eax
    7b89:	0f 00 d8             	ltr    %ax
	lldt(0);							// 其中参数(0)是任务号.
    7b8c:	b8 28 00 00 00       	mov    $0x28,%eax
    7b91:	0f 00 d0             	lldt   %ax
	// 下面代码用于初始化8253定时器.通道0,选择工作方式3,二进制计数方式.通道0的输出引脚接在中断控制主芯片的IRQ0上,它每10毫秒发出一个IRQ0请求.
	// LATCH是初始定时计数值.
	outb_p(0x36, 0x43);					/* binary, mode 3, LSB/MSB, ch 0 */
    7b94:	b8 36 00 00 00       	mov    $0x36,%eax
    7b99:	ba 43 00 00 00       	mov    $0x43,%edx
    7b9e:	ee                   	out    %al,(%dx)
    7b9f:	eb 00                	jmp    7ba1 <sched_init+0x1bc>
    7ba1:	eb 00                	jmp    7ba3 <sched_init+0x1be>
	outb_p(LATCH & 0xff, 0x40);			/* LSB */	// 定时值低字节
    7ba3:	b8 9b 00 00 00       	mov    $0x9b,%eax
    7ba8:	ba 40 00 00 00       	mov    $0x40,%edx
    7bad:	ee                   	out    %al,(%dx)
    7bae:	eb 00                	jmp    7bb0 <sched_init+0x1cb>
    7bb0:	eb 00                	jmp    7bb2 <sched_init+0x1cd>
	outb(LATCH >> 8, 0x40);				/* MSB */	// 定时值高字节
    7bb2:	b8 2e 00 00 00       	mov    $0x2e,%eax
    7bb7:	ba 40 00 00 00       	mov    $0x40,%edx
    7bbc:	ee                   	out    %al,(%dx)
	// 设置时钟中断处理程序句柄(设置时钟中断门).修改中断控制器屏蔽码,允许时钟中断.
	// 然后设置系统调用中断门.这两个设置中断描述衔表IDT中描述符的宏定义在文件include/asm/system.h中.两者的区别参见system.h文件开始处的说明.
	set_intr_gate(0x20, &timer_interrupt);
    7bbd:	8b 04 24             	mov    (%esp),%eax
    7bc0:	c7 c0 b8 54 00 00    	mov    $0x54b8,%eax
    7bc6:	8d 98 00 01 00 00    	lea    0x100(%eax),%ebx
    7bcc:	8b 04 24             	mov    (%esp),%eax
    7bcf:	c7 c0 b8 54 00 00    	mov    $0x54b8,%eax
    7bd5:	8d b0 04 01 00 00    	lea    0x104(%eax),%esi
    7bdb:	8b 04 24             	mov    (%esp),%eax
    7bde:	c7 c0 64 7d 00 00    	mov    $0x7d64,%eax
    7be4:	89 c2                	mov    %eax,%edx
    7be6:	b8 00 00 08 00       	mov    $0x80000,%eax
    7beb:	66 89 d0             	mov    %dx,%ax
    7bee:	66 ba 00 8e          	mov    $0x8e00,%dx
    7bf2:	89 03                	mov    %eax,(%ebx)
    7bf4:	89 16                	mov    %edx,(%esi)
	outb(inb_p(0x21) & ~0x01, 0x21);
    7bf6:	b8 21 00 00 00       	mov    $0x21,%eax
    7bfb:	89 c2                	mov    %eax,%edx
    7bfd:	ec                   	in     (%dx),%al
    7bfe:	eb 00                	jmp    7c00 <sched_init+0x21b>
    7c00:	eb 00                	jmp    7c02 <sched_init+0x21d>
    7c02:	88 44 24 0f          	mov    %al,0xf(%esp)
    7c06:	0f b6 44 24 0f       	movzbl 0xf(%esp),%eax
    7c0b:	0f b6 c0             	movzbl %al,%eax
    7c0e:	83 e0 fe             	and    $0xfffffffe,%eax
    7c11:	ba 21 00 00 00       	mov    $0x21,%edx
    7c16:	ee                   	out    %al,(%dx)
	set_system_gate(0x80, &system_call);
    7c17:	8b 04 24             	mov    (%esp),%eax
    7c1a:	c7 c0 b8 54 00 00    	mov    $0x54b8,%eax
    7c20:	8d 98 00 04 00 00    	lea    0x400(%eax),%ebx
    7c26:	8b 04 24             	mov    (%esp),%eax
    7c29:	c7 c0 b8 54 00 00    	mov    $0x54b8,%eax
    7c2f:	8d b0 04 04 00 00    	lea    0x404(%eax),%esi
    7c35:	8b 04 24             	mov    (%esp),%eax
    7c38:	c7 c0 6c 7c 00 00    	mov    $0x7c6c,%eax
    7c3e:	89 c2                	mov    %eax,%edx
    7c40:	b8 00 00 08 00       	mov    $0x80000,%eax
    7c45:	66 89 d0             	mov    %dx,%ax
    7c48:	66 ba 00 ef          	mov    $0xef00,%dx
    7c4c:	89 03                	mov    %eax,(%ebx)
    7c4e:	89 16                	mov    %edx,(%esi)
}
    7c50:	90                   	nop
    7c51:	83 c4 18             	add    $0x18,%esp
    7c54:	5b                   	pop    %ebx
    7c55:	5e                   	pop    %esi
    7c56:	5f                   	pop    %edi
    7c57:	5d                   	pop    %ebp
    7c58:	c3                   	ret    
    7c59:	66 90                	xchg   %ax,%ax
    7c5b:	90                   	nop

00007c5c <bad_sys_call>:
    7c5c:	6a da                	push   $0xffffffda
    7c5e:	eb 50                	jmp    7cb0 <ret_from_sys_call>

00007c60 <reschedule>:
    7c60:	68 b0 7c 00 00       	push   $0x7cb0
    7c65:	e9 e1 f2 ff ff       	jmp    6f4b <schedule>
    7c6a:	66 90                	xchg   %ax,%ax

00007c6c <system_call>:
    7c6c:	1e                   	push   %ds
    7c6d:	06                   	push   %es
    7c6e:	0f a0                	push   %fs
    7c70:	50                   	push   %eax
    7c71:	52                   	push   %edx
    7c72:	51                   	push   %ecx
    7c73:	53                   	push   %ebx
    7c74:	ba 10 00 00 00       	mov    $0x10,%edx
    7c79:	8e da                	mov    %edx,%ds
    7c7b:	8e c2                	mov    %edx,%es
    7c7d:	ba 17 00 00 00       	mov    $0x17,%edx
    7c82:	8e e2                	mov    %edx,%fs
    7c84:	3b 05 60 20 03 00    	cmp    0x32060,%eax
    7c8a:	73 d0                	jae    7c5c <bad_sys_call>
    7c8c:	8b 1c 85 00 21 03 00 	mov    0x32100(,%eax,4),%ebx
    7c93:	83 fb 00             	cmp    $0x0,%ebx
    7c96:	75 05                	jne    7c9d <sys_call>
    7c98:	e8 ec 30 00 00       	call   ad89 <sys_default>

00007c9d <sys_call>:
    7c9d:	ff d3                	call   *%ebx
    7c9f:	50                   	push   %eax
    7ca0:	a1 80 32 03 00       	mov    0x33280,%eax
    7ca5:	83 38 00             	cmpl   $0x0,(%eax)
    7ca8:	75 b6                	jne    7c60 <reschedule>
    7caa:	83 78 04 00          	cmpl   $0x0,0x4(%eax)
    7cae:	74 b0                	je     7c60 <reschedule>

00007cb0 <ret_from_sys_call>:
    7cb0:	a1 80 32 03 00       	mov    0x33280,%eax
    7cb5:	3b 05 a0 32 03 00    	cmp    0x332a0,%eax
    7cbb:	74 34                	je     7cf1 <ret_from_sys_call+0x41>
    7cbd:	66 83 7c 24 24 0f    	cmpw   $0xf,0x24(%esp)
    7cc3:	75 2c                	jne    7cf1 <ret_from_sys_call+0x41>
    7cc5:	66 83 7c 24 30 17    	cmpw   $0x17,0x30(%esp)
    7ccb:	75 24                	jne    7cf1 <ret_from_sys_call+0x41>
    7ccd:	8b 58 0c             	mov    0xc(%eax),%ebx
    7cd0:	8b 88 10 02 00 00    	mov    0x210(%eax),%ecx
    7cd6:	f7 d1                	not    %ecx
    7cd8:	21 d9                	and    %ebx,%ecx
    7cda:	0f bc c9             	bsf    %ecx,%ecx
    7cdd:	74 12                	je     7cf1 <ret_from_sys_call+0x41>
    7cdf:	0f b3 cb             	btr    %ecx,%ebx
    7ce2:	89 58 0c             	mov    %ebx,0xc(%eax)
    7ce5:	41                   	inc    %ecx
    7ce6:	51                   	push   %ecx
    7ce7:	e8 50 49 00 00       	call   c63c <do_signal>
    7cec:	59                   	pop    %ecx
    7ced:	85 c0                	test   %eax,%eax
    7cef:	75 af                	jne    7ca0 <sys_call+0x3>
    7cf1:	58                   	pop    %eax
    7cf2:	5b                   	pop    %ebx
    7cf3:	59                   	pop    %ecx
    7cf4:	5a                   	pop    %edx
    7cf5:	83 c4 04             	add    $0x4,%esp
    7cf8:	0f a1                	pop    %fs
    7cfa:	07                   	pop    %es
    7cfb:	1f                   	pop    %ds
    7cfc:	cf                   	iret   
    7cfd:	8d 76 00             	lea    0x0(%esi),%esi

00007d00 <coprocessor_error>:
    7d00:	1e                   	push   %ds
    7d01:	06                   	push   %es
    7d02:	0f a0                	push   %fs
    7d04:	6a ff                	push   $0xffffffff
    7d06:	52                   	push   %edx
    7d07:	51                   	push   %ecx
    7d08:	53                   	push   %ebx
    7d09:	50                   	push   %eax
    7d0a:	b8 10 00 00 00       	mov    $0x10,%eax
    7d0f:	8e d8                	mov    %eax,%ds
    7d11:	8e c0                	mov    %eax,%es
    7d13:	b8 17 00 00 00       	mov    $0x17,%eax
    7d18:	8e e0                	mov    %eax,%fs
    7d1a:	68 b0 7c 00 00       	push   $0x7cb0
    7d1f:	e9 9c bd 01 00       	jmp    23ac0 <math_error>

00007d24 <device_not_available>:
    7d24:	1e                   	push   %ds
    7d25:	06                   	push   %es
    7d26:	0f a0                	push   %fs
    7d28:	6a ff                	push   $0xffffffff
    7d2a:	52                   	push   %edx
    7d2b:	51                   	push   %ecx
    7d2c:	53                   	push   %ebx
    7d2d:	50                   	push   %eax
    7d2e:	b8 10 00 00 00       	mov    $0x10,%eax
    7d33:	8e d8                	mov    %eax,%ds
    7d35:	8e c0                	mov    %eax,%es
    7d37:	b8 17 00 00 00       	mov    $0x17,%eax
    7d3c:	8e e0                	mov    %eax,%fs
    7d3e:	68 b0 7c 00 00       	push   $0x7cb0
    7d43:	0f 06                	clts   
    7d45:	0f 20 c0             	mov    %cr0,%eax
    7d48:	a9 04 00 00 00       	test   $0x4,%eax
    7d4d:	0f 84 88 f1 ff ff    	je     6edb <math_state_restore>
    7d53:	55                   	push   %ebp
    7d54:	56                   	push   %esi
    7d55:	57                   	push   %edi
    7d56:	6a 00                	push   $0x0
    7d58:	e8 f3 ba 01 00       	call   23850 <math_emulate>
    7d5d:	83 c4 04             	add    $0x4,%esp
    7d60:	5f                   	pop    %edi
    7d61:	5e                   	pop    %esi
    7d62:	5d                   	pop    %ebp
    7d63:	c3                   	ret    

00007d64 <timer_interrupt>:
    7d64:	1e                   	push   %ds
    7d65:	06                   	push   %es
    7d66:	0f a0                	push   %fs
    7d68:	6a ff                	push   $0xffffffff
    7d6a:	52                   	push   %edx
    7d6b:	51                   	push   %ecx
    7d6c:	53                   	push   %ebx
    7d6d:	50                   	push   %eax
    7d6e:	b8 10 00 00 00       	mov    $0x10,%eax
    7d73:	8e d8                	mov    %eax,%ds
    7d75:	8e c0                	mov    %eax,%es
    7d77:	b8 17 00 00 00       	mov    $0x17,%eax
    7d7c:	8e e0                	mov    %eax,%fs
    7d7e:	ff 05 80 3b 03 00    	incl   0x33b80
    7d84:	b0 20                	mov    $0x20,%al
    7d86:	e6 20                	out    %al,$0x20
    7d88:	8b 44 24 24          	mov    0x24(%esp),%eax
    7d8c:	83 e0 03             	and    $0x3,%eax
    7d8f:	50                   	push   %eax
    7d90:	e8 46 f9 ff ff       	call   76db <do_timer>
    7d95:	83 c4 04             	add    $0x4,%esp
    7d98:	e9 13 ff ff ff       	jmp    7cb0 <ret_from_sys_call>
    7d9d:	8d 76 00             	lea    0x0(%esi),%esi

00007da0 <sys_execve>:
    7da0:	8d 44 24 20          	lea    0x20(%esp),%eax
    7da4:	50                   	push   %eax
    7da5:	e8 e1 b0 00 00       	call   12e8b <do_execve>
    7daa:	83 c4 04             	add    $0x4,%esp
    7dad:	c3                   	ret    
    7dae:	66 90                	xchg   %ax,%ax

00007db0 <sys_fork>:
    7db0:	e8 5f 14 00 00       	call   9214 <find_empty_process>
    7db5:	85 c0                	test   %eax,%eax
    7db7:	78 0e                	js     7dc7 <sys_fork+0x17>
    7db9:	0f a8                	push   %gs
    7dbb:	56                   	push   %esi
    7dbc:	57                   	push   %edi
    7dbd:	55                   	push   %ebp
    7dbe:	50                   	push   %eax
    7dbf:	e8 bc 0d 00 00       	call   8b80 <copy_process>
    7dc4:	83 c4 14             	add    $0x14,%esp
    7dc7:	c3                   	ret    

00007dc8 <hd_interrupt>:
    7dc8:	50                   	push   %eax
    7dc9:	51                   	push   %ecx
    7dca:	52                   	push   %edx
    7dcb:	1e                   	push   %ds
    7dcc:	06                   	push   %es
    7dcd:	0f a0                	push   %fs
    7dcf:	b8 10 00 00 00       	mov    $0x10,%eax
    7dd4:	8e d8                	mov    %eax,%ds
    7dd6:	8e c0                	mov    %eax,%es
    7dd8:	b8 17 00 00 00       	mov    $0x17,%eax
    7ddd:	8e e0                	mov    %eax,%fs
    7ddf:	b0 20                	mov    $0x20,%al
    7de1:	e6 a0                	out    %al,$0xa0
    7de3:	eb 00                	jmp    7de5 <hd_interrupt+0x1d>
    7de5:	eb 00                	jmp    7de7 <hd_interrupt+0x1f>
    7de7:	31 d2                	xor    %edx,%edx
    7de9:	89 15 04 62 03 00    	mov    %edx,0x36204
    7def:	87 15 00 62 03 00    	xchg   %edx,0x36200
    7df5:	85 d2                	test   %edx,%edx
    7df7:	75 05                	jne    7dfe <hd_interrupt+0x36>
    7df9:	ba 4c 9e 01 00       	mov    $0x19e4c,%edx
    7dfe:	e6 20                	out    %al,$0x20
    7e00:	ff d2                	call   *%edx
    7e02:	0f a1                	pop    %fs
    7e04:	07                   	pop    %es
    7e05:	1f                   	pop    %ds
    7e06:	5a                   	pop    %edx
    7e07:	59                   	pop    %ecx
    7e08:	58                   	pop    %eax
    7e09:	cf                   	iret   

00007e0a <floppy_interrupt>:
    7e0a:	50                   	push   %eax
    7e0b:	51                   	push   %ecx
    7e0c:	52                   	push   %edx
    7e0d:	1e                   	push   %ds
    7e0e:	06                   	push   %es
    7e0f:	0f a0                	push   %fs
    7e11:	b8 10 00 00 00       	mov    $0x10,%eax
    7e16:	8e d8                	mov    %eax,%ds
    7e18:	8e c0                	mov    %eax,%es
    7e1a:	b8 17 00 00 00       	mov    $0x17,%eax
    7e1f:	8e e0                	mov    %eax,%fs
    7e21:	b0 20                	mov    $0x20,%al
    7e23:	e6 20                	out    %al,$0x20
    7e25:	31 c0                	xor    %eax,%eax
    7e27:	87 05 d4 61 03 00    	xchg   %eax,0x361d4
    7e2d:	85 c0                	test   %eax,%eax
    7e2f:	75 05                	jne    7e36 <floppy_interrupt+0x2c>
    7e31:	b8 b3 8e 01 00       	mov    $0x18eb3,%eax
    7e36:	ff d0                	call   *%eax
    7e38:	0f a1                	pop    %fs
    7e3a:	07                   	pop    %es
    7e3b:	1f                   	pop    %ds
    7e3c:	5a                   	pop    %edx
    7e3d:	59                   	pop    %ecx
    7e3e:	58                   	pop    %eax
    7e3f:	cf                   	iret   

00007e40 <parallel_interrupt>:
    7e40:	50                   	push   %eax
    7e41:	b0 20                	mov    $0x20,%al
    7e43:	e6 20                	out    %al,$0x20
    7e45:	58                   	pop    %eax
    7e46:	cf                   	iret   

00007e47 <die>:
void alignment_check(void);					// int46(kernel/asm.s)

// 该子程序用来打印出错中断的名称,出错号,调用程序的EIP,EFLAGS,ESP,fs段寄存器值,段的基址,段的长度,进程号pid,任务号,10字节指令码.如果
// 堆栈在用户数据段,则还打印16字节堆栈内容.这些信息可用于程序调试.
static void die(char * str, long esp_ptr, long nr)
{
    7e47:	57                   	push   %edi
    7e48:	56                   	push   %esi
    7e49:	53                   	push   %ebx
    7e4a:	83 ec 10             	sub    $0x10,%esp
    7e4d:	e8 a8 ee ff ff       	call   6cfa <__x86.get_pc_thunk.bx>
    7e52:	81 c3 ae a1 02 00    	add    $0x2a1ae,%ebx
	long * esp = (long *) esp_ptr;
    7e58:	8b 44 24 24          	mov    0x24(%esp),%eax
    7e5c:	89 44 24 08          	mov    %eax,0x8(%esp)
	int i;

	printk("%s: %04x\n\r",str, nr & 0xffff);
    7e60:	8b 44 24 28          	mov    0x28(%esp),%eax
    7e64:	0f b7 c0             	movzwl %ax,%eax
    7e67:	83 ec 04             	sub    $0x4,%esp
    7e6a:	50                   	push   %eax
    7e6b:	ff 74 24 28          	pushl  0x28(%esp)
    7e6f:	8d 83 58 42 ff ff    	lea    -0xbda8(%ebx),%eax
    7e75:	50                   	push   %eax
    7e76:	e8 b7 14 00 00       	call   9332 <printk>
    7e7b:	83 c4 10             	add    $0x10,%esp
	// 下行打印语句显示当前调用进程的CS:EIP,EFLAGS和SS:ESP的值.
	// (1) EIP:\t%04x:%p\n	-- esp[1]是段选择符(cs),esp[0]是eip
	// (2) EFLAGS:\t%p	-- esp[2]是eflags
	// (2) ESP:\t%04x:%p\n	-- esp[4]是原ss,esp[3]是原esp
	printk("EIP:\t%04x:%p\nEFLAGS:\t%p\nESP:\t%04x:%p\n",
		esp[1], esp[0], esp[2], esp[4], esp[3]);
    7e7e:	8b 44 24 08          	mov    0x8(%esp),%eax
    7e82:	83 c0 0c             	add    $0xc,%eax
	printk("EIP:\t%04x:%p\nEFLAGS:\t%p\nESP:\t%04x:%p\n",
    7e85:	8b 38                	mov    (%eax),%edi
		esp[1], esp[0], esp[2], esp[4], esp[3]);
    7e87:	8b 44 24 08          	mov    0x8(%esp),%eax
    7e8b:	83 c0 10             	add    $0x10,%eax
	printk("EIP:\t%04x:%p\nEFLAGS:\t%p\nESP:\t%04x:%p\n",
    7e8e:	8b 30                	mov    (%eax),%esi
		esp[1], esp[0], esp[2], esp[4], esp[3]);
    7e90:	8b 44 24 08          	mov    0x8(%esp),%eax
    7e94:	83 c0 08             	add    $0x8,%eax
	printk("EIP:\t%04x:%p\nEFLAGS:\t%p\nESP:\t%04x:%p\n",
    7e97:	8b 08                	mov    (%eax),%ecx
    7e99:	8b 44 24 08          	mov    0x8(%esp),%eax
    7e9d:	8b 10                	mov    (%eax),%edx
		esp[1], esp[0], esp[2], esp[4], esp[3]);
    7e9f:	8b 44 24 08          	mov    0x8(%esp),%eax
    7ea3:	83 c0 04             	add    $0x4,%eax
	printk("EIP:\t%04x:%p\nEFLAGS:\t%p\nESP:\t%04x:%p\n",
    7ea6:	8b 00                	mov    (%eax),%eax
    7ea8:	83 ec 08             	sub    $0x8,%esp
    7eab:	57                   	push   %edi
    7eac:	56                   	push   %esi
    7ead:	51                   	push   %ecx
    7eae:	52                   	push   %edx
    7eaf:	50                   	push   %eax
    7eb0:	8d 83 64 42 ff ff    	lea    -0xbd9c(%ebx),%eax
    7eb6:	50                   	push   %eax
    7eb7:	e8 76 14 00 00       	call   9332 <printk>
    7ebc:	83 c4 20             	add    $0x20,%esp
	printk("fs: %04x\n", _fs());
    7ebf:	66 8c e0             	mov    %fs,%ax
    7ec2:	89 c6                	mov    %eax,%esi
    7ec4:	89 f0                	mov    %esi,%eax
    7ec6:	0f b7 c0             	movzwl %ax,%eax
    7ec9:	83 ec 08             	sub    $0x8,%esp
    7ecc:	50                   	push   %eax
    7ecd:	8d 83 8a 42 ff ff    	lea    -0xbd76(%ebx),%eax
    7ed3:	50                   	push   %eax
    7ed4:	e8 59 14 00 00       	call   9332 <printk>
    7ed9:	83 c4 10             	add    $0x10,%esp
	printk("base: %p, limit: %p\n", get_base(current->ldt[1]), get_limit(0x17));
    7edc:	b8 17 00 00 00       	mov    $0x17,%eax
    7ee1:	0f 03 c0             	lsl    %ax,%eax
    7ee4:	40                   	inc    %eax
    7ee5:	89 44 24 04          	mov    %eax,0x4(%esp)
    7ee9:	8b 4c 24 04          	mov    0x4(%esp),%ecx
    7eed:	c7 c0 80 32 03 00    	mov    $0x33280,%eax
    7ef3:	8b 00                	mov    (%eax),%eax
    7ef5:	05 a0 03 00 00       	add    $0x3a0,%eax
    7efa:	8d 78 02             	lea    0x2(%eax),%edi
    7efd:	c7 c0 80 32 03 00    	mov    $0x33280,%eax
    7f03:	8b 00                	mov    (%eax),%eax
    7f05:	05 a0 03 00 00       	add    $0x3a0,%eax
    7f0a:	8d 70 04             	lea    0x4(%eax),%esi
    7f0d:	c7 c0 80 32 03 00    	mov    $0x33280,%eax
    7f13:	8b 00                	mov    (%eax),%eax
    7f15:	05 a0 03 00 00       	add    $0x3a0,%eax
    7f1a:	83 c0 07             	add    $0x7,%eax
    7f1d:	8a 30                	mov    (%eax),%dh
    7f1f:	8a 16                	mov    (%esi),%dl
    7f21:	c1 e2 10             	shl    $0x10,%edx
    7f24:	66 8b 17             	mov    (%edi),%dx
    7f27:	89 d0                	mov    %edx,%eax
    7f29:	89 04 24             	mov    %eax,(%esp)
    7f2c:	8b 04 24             	mov    (%esp),%eax
    7f2f:	83 ec 04             	sub    $0x4,%esp
    7f32:	51                   	push   %ecx
    7f33:	50                   	push   %eax
    7f34:	8d 83 94 42 ff ff    	lea    -0xbd6c(%ebx),%eax
    7f3a:	50                   	push   %eax
    7f3b:	e8 f2 13 00 00       	call   9332 <printk>
    7f40:	83 c4 10             	add    $0x10,%esp
	if (esp[4] == 0x17) {						// 或原ss值为0x17(用户栈),则还打印出用户栈的4个长字值(16字节).
    7f43:	8b 44 24 08          	mov    0x8(%esp),%eax
    7f47:	83 c0 10             	add    $0x10,%eax
    7f4a:	8b 00                	mov    (%eax),%eax
    7f4c:	83 f8 17             	cmp    $0x17,%eax
    7f4f:	75 77                	jne    7fc8 <die+0x181>
		printk("Stack: ");
    7f51:	83 ec 0c             	sub    $0xc,%esp
    7f54:	8d 83 a9 42 ff ff    	lea    -0xbd57(%ebx),%eax
    7f5a:	50                   	push   %eax
    7f5b:	e8 d2 13 00 00       	call   9332 <printk>
    7f60:	83 c4 10             	add    $0x10,%esp
		for (i = 0; i < 4; i++)
    7f63:	c7 44 24 0c 00 00 00 	movl   $0x0,0xc(%esp)
    7f6a:	00 
    7f6b:	eb 42                	jmp    7faf <die+0x168>
			printk("%p ", get_seg_long(0x17, i + (long *)esp[3]));
    7f6d:	8b 44 24 0c          	mov    0xc(%esp),%eax
    7f71:	8d 14 85 00 00 00 00 	lea    0x0(,%eax,4),%edx
    7f78:	8b 44 24 08          	mov    0x8(%esp),%eax
    7f7c:	83 c0 0c             	add    $0xc,%eax
    7f7f:	8b 00                	mov    (%eax),%eax
    7f81:	01 d0                	add    %edx,%eax
    7f83:	89 c2                	mov    %eax,%edx
    7f85:	b8 17 00 00 00       	mov    $0x17,%eax
    7f8a:	0f a0                	push   %fs
    7f8c:	8e e0                	mov    %eax,%fs
    7f8e:	64 8b 02             	mov    %fs:(%edx),%eax
    7f91:	0f a1                	pop    %fs
    7f93:	89 c6                	mov    %eax,%esi
    7f95:	89 f0                	mov    %esi,%eax
    7f97:	83 ec 08             	sub    $0x8,%esp
    7f9a:	50                   	push   %eax
    7f9b:	8d 83 b1 42 ff ff    	lea    -0xbd4f(%ebx),%eax
    7fa1:	50                   	push   %eax
    7fa2:	e8 8b 13 00 00       	call   9332 <printk>
    7fa7:	83 c4 10             	add    $0x10,%esp
		for (i = 0; i < 4; i++)
    7faa:	83 44 24 0c 01       	addl   $0x1,0xc(%esp)
    7faf:	83 7c 24 0c 03       	cmpl   $0x3,0xc(%esp)
    7fb4:	7e b7                	jle    7f6d <die+0x126>
		printk("\n");
    7fb6:	83 ec 0c             	sub    $0xc,%esp
    7fb9:	8d 83 b5 42 ff ff    	lea    -0xbd4b(%ebx),%eax
    7fbf:	50                   	push   %eax
    7fc0:	e8 6d 13 00 00       	call   9332 <printk>
    7fc5:	83 c4 10             	add    $0x10,%esp
	}
	str(i);										// 取当前运行任务的任务号(include/linux/sched.h).
    7fc8:	b8 00 00 00 00       	mov    $0x0,%eax
    7fcd:	66 0f 00 c8          	str    %ax
    7fd1:	83 e8 20             	sub    $0x20,%eax
    7fd4:	c1 e8 04             	shr    $0x4,%eax
    7fd7:	89 44 24 0c          	mov    %eax,0xc(%esp)
	printk("Pid: %d, process nr: %d\n\r", current->pid, 0xffff & i);
    7fdb:	8b 44 24 0c          	mov    0xc(%esp),%eax
    7fdf:	0f b7 d0             	movzwl %ax,%edx
    7fe2:	c7 c0 80 32 03 00    	mov    $0x33280,%eax
    7fe8:	8b 00                	mov    (%eax),%eax
    7fea:	8b 80 2c 02 00 00    	mov    0x22c(%eax),%eax
    7ff0:	83 ec 04             	sub    $0x4,%esp
    7ff3:	52                   	push   %edx
    7ff4:	50                   	push   %eax
    7ff5:	8d 83 b7 42 ff ff    	lea    -0xbd49(%ebx),%eax
    7ffb:	50                   	push   %eax
    7ffc:	e8 31 13 00 00       	call   9332 <printk>
    8001:	83 c4 10             	add    $0x10,%esp
                        						// 进程号,任务号.
	for(i = 0; i < 10; i++)
    8004:	c7 44 24 0c 00 00 00 	movl   $0x0,0xc(%esp)
    800b:	00 
    800c:	eb 42                	jmp    8050 <die+0x209>
		printk("%02x ", 0xff & get_seg_byte(esp[1], (i+(char *)esp[0])));
    800e:	8b 44 24 08          	mov    0x8(%esp),%eax
    8012:	83 c0 04             	add    $0x4,%eax
    8015:	8b 00                	mov    (%eax),%eax
    8017:	8b 54 24 08          	mov    0x8(%esp),%edx
    801b:	8b 12                	mov    (%edx),%edx
    801d:	89 d1                	mov    %edx,%ecx
    801f:	8b 54 24 0c          	mov    0xc(%esp),%edx
    8023:	01 ca                	add    %ecx,%edx
    8025:	0f a0                	push   %fs
    8027:	8e e0                	mov    %eax,%fs
    8029:	64 8a 02             	mov    %fs:(%edx),%al
    802c:	0f a1                	pop    %fs
    802e:	89 c6                	mov    %eax,%esi
    8030:	89 f0                	mov    %esi,%eax
    8032:	0f be c0             	movsbl %al,%eax
    8035:	0f b6 c0             	movzbl %al,%eax
    8038:	83 ec 08             	sub    $0x8,%esp
    803b:	50                   	push   %eax
    803c:	8d 83 d1 42 ff ff    	lea    -0xbd2f(%ebx),%eax
    8042:	50                   	push   %eax
    8043:	e8 ea 12 00 00       	call   9332 <printk>
    8048:	83 c4 10             	add    $0x10,%esp
	for(i = 0; i < 10; i++)
    804b:	83 44 24 0c 01       	addl   $0x1,0xc(%esp)
    8050:	83 7c 24 0c 09       	cmpl   $0x9,0xc(%esp)
    8055:	7e b7                	jle    800e <die+0x1c7>
	printk("\n\r");
    8057:	83 ec 0c             	sub    $0xc,%esp
    805a:	8d 83 d7 42 ff ff    	lea    -0xbd29(%ebx),%eax
    8060:	50                   	push   %eax
    8061:	e8 cc 12 00 00       	call   9332 <printk>
    8066:	83 c4 10             	add    $0x10,%esp
	do_exit(11);								/* play segment exception */
    8069:	83 ec 0c             	sub    $0xc,%esp
    806c:	6a 0b                	push   $0xb
    806e:	e8 f1 38 00 00       	call   b964 <do_exit>
    8073:	83 c4 10             	add    $0x10,%esp
}
    8076:	90                   	nop
    8077:	83 c4 10             	add    $0x10,%esp
    807a:	5b                   	pop    %ebx
    807b:	5e                   	pop    %esi
    807c:	5f                   	pop    %edi
    807d:	c3                   	ret    

0000807e <do_double_fault>:

// 以下这些以do_开头的函数是asm.s中对应中断处理程序调用的C函数.
void do_double_fault(long esp, long error_code)
{
    807e:	83 ec 0c             	sub    $0xc,%esp
    8081:	e8 6c ec ff ff       	call   6cf2 <__x86.get_pc_thunk.ax>
    8086:	05 7a 9f 02 00       	add    $0x29f7a,%eax
	die("double fault", esp, error_code);
    808b:	83 ec 04             	sub    $0x4,%esp
    808e:	ff 74 24 18          	pushl  0x18(%esp)
    8092:	ff 74 24 18          	pushl  0x18(%esp)
    8096:	8d 80 da 42 ff ff    	lea    -0xbd26(%eax),%eax
    809c:	50                   	push   %eax
    809d:	e8 a5 fd ff ff       	call   7e47 <die>
    80a2:	83 c4 10             	add    $0x10,%esp
}
    80a5:	90                   	nop
    80a6:	83 c4 0c             	add    $0xc,%esp
    80a9:	c3                   	ret    

000080aa <do_general_protection>:

void do_general_protection(long esp, long error_code)
{
    80aa:	83 ec 0c             	sub    $0xc,%esp
    80ad:	e8 40 ec ff ff       	call   6cf2 <__x86.get_pc_thunk.ax>
    80b2:	05 4e 9f 02 00       	add    $0x29f4e,%eax
	die("general protection", esp, error_code);
    80b7:	83 ec 04             	sub    $0x4,%esp
    80ba:	ff 74 24 18          	pushl  0x18(%esp)
    80be:	ff 74 24 18          	pushl  0x18(%esp)
    80c2:	8d 80 e7 42 ff ff    	lea    -0xbd19(%eax),%eax
    80c8:	50                   	push   %eax
    80c9:	e8 79 fd ff ff       	call   7e47 <die>
    80ce:	83 c4 10             	add    $0x10,%esp
}
    80d1:	90                   	nop
    80d2:	83 c4 0c             	add    $0xc,%esp
    80d5:	c3                   	ret    

000080d6 <do_alignment_check>:

void do_alignment_check(long esp, long error_code)
{
    80d6:	83 ec 0c             	sub    $0xc,%esp
    80d9:	e8 14 ec ff ff       	call   6cf2 <__x86.get_pc_thunk.ax>
    80de:	05 22 9f 02 00       	add    $0x29f22,%eax
    die("alignment check", esp, error_code);
    80e3:	83 ec 04             	sub    $0x4,%esp
    80e6:	ff 74 24 18          	pushl  0x18(%esp)
    80ea:	ff 74 24 18          	pushl  0x18(%esp)
    80ee:	8d 80 fa 42 ff ff    	lea    -0xbd06(%eax),%eax
    80f4:	50                   	push   %eax
    80f5:	e8 4d fd ff ff       	call   7e47 <die>
    80fa:	83 c4 10             	add    $0x10,%esp
}
    80fd:	90                   	nop
    80fe:	83 c4 0c             	add    $0xc,%esp
    8101:	c3                   	ret    

00008102 <do_divide_error>:

void do_divide_error(long esp, long error_code)
{
    8102:	83 ec 0c             	sub    $0xc,%esp
    8105:	e8 e8 eb ff ff       	call   6cf2 <__x86.get_pc_thunk.ax>
    810a:	05 f6 9e 02 00       	add    $0x29ef6,%eax
	die("divide error", esp, error_code);
    810f:	83 ec 04             	sub    $0x4,%esp
    8112:	ff 74 24 18          	pushl  0x18(%esp)
    8116:	ff 74 24 18          	pushl  0x18(%esp)
    811a:	8d 80 0a 43 ff ff    	lea    -0xbcf6(%eax),%eax
    8120:	50                   	push   %eax
    8121:	e8 21 fd ff ff       	call   7e47 <die>
    8126:	83 c4 10             	add    $0x10,%esp
}
    8129:	90                   	nop
    812a:	83 c4 0c             	add    $0xc,%esp
    812d:	c3                   	ret    

0000812e <do_int3>:
// 参数是进入中断后被顺序压入堆栈的寄存器值.参见asm.s程序.
void do_int3(long * esp, long error_code,
		long fs, long es, long ds,
		long ebp, long esi, long edi,
		long edx, long ecx, long ebx, long eax)
{
    812e:	53                   	push   %ebx
    812f:	83 ec 18             	sub    $0x18,%esp
    8132:	e8 c3 eb ff ff       	call   6cfa <__x86.get_pc_thunk.bx>
    8137:	81 c3 c9 9e 02 00    	add    $0x29ec9,%ebx
	int tr;

	__asm__("str %%ax":"=a" (tr):"0" (0));		// 取任务寄存器值->tr
    813d:	b8 00 00 00 00       	mov    $0x0,%eax
    8142:	66 0f 00 c8          	str    %ax
    8146:	89 44 24 0c          	mov    %eax,0xc(%esp)
	printk("eax\t\tebx\t\tecx\t\tedx\n\r%8x\t%8x\t%8x\t%8x\n\r",
    814a:	83 ec 0c             	sub    $0xc,%esp
    814d:	ff 74 24 4c          	pushl  0x4c(%esp)
    8151:	ff 74 24 54          	pushl  0x54(%esp)
    8155:	ff 74 24 5c          	pushl  0x5c(%esp)
    8159:	ff 74 24 64          	pushl  0x64(%esp)
    815d:	8d 83 18 43 ff ff    	lea    -0xbce8(%ebx),%eax
    8163:	50                   	push   %eax
    8164:	e8 c9 11 00 00       	call   9332 <printk>
    8169:	83 c4 20             	add    $0x20,%esp
		eax, ebx, ecx, edx);
	printk("esi\t\tedi\t\tebp\t\tesp\n\r%8x\t%8x\t%8x\t%8x\n\r",
    816c:	8b 44 24 20          	mov    0x20(%esp),%eax
    8170:	83 ec 0c             	sub    $0xc,%esp
    8173:	50                   	push   %eax
    8174:	ff 74 24 44          	pushl  0x44(%esp)
    8178:	ff 74 24 50          	pushl  0x50(%esp)
    817c:	ff 74 24 50          	pushl  0x50(%esp)
    8180:	8d 83 40 43 ff ff    	lea    -0xbcc0(%ebx),%eax
    8186:	50                   	push   %eax
    8187:	e8 a6 11 00 00       	call   9332 <printk>
    818c:	83 c4 20             	add    $0x20,%esp
		esi, edi, ebp, (long) esp);
	printk("\n\rds\tes\tfs\ttr\n\r%4x\t%4x\t%4x\t%4x\n\r",
    818f:	83 ec 0c             	sub    $0xc,%esp
    8192:	ff 74 24 18          	pushl  0x18(%esp)
    8196:	ff 74 24 38          	pushl  0x38(%esp)
    819a:	ff 74 24 40          	pushl  0x40(%esp)
    819e:	ff 74 24 48          	pushl  0x48(%esp)
    81a2:	8d 83 68 43 ff ff    	lea    -0xbc98(%ebx),%eax
    81a8:	50                   	push   %eax
    81a9:	e8 84 11 00 00       	call   9332 <printk>
    81ae:	83 c4 20             	add    $0x20,%esp
		ds, es, fs, tr);
	printk("EIP: %8x   CS: %4x  EFLAGS: %8x\n\r", esp[0], esp[1], esp[2]);
    81b1:	8b 44 24 20          	mov    0x20(%esp),%eax
    81b5:	83 c0 08             	add    $0x8,%eax
    81b8:	8b 08                	mov    (%eax),%ecx
    81ba:	8b 44 24 20          	mov    0x20(%esp),%eax
    81be:	83 c0 04             	add    $0x4,%eax
    81c1:	8b 10                	mov    (%eax),%edx
    81c3:	8b 44 24 20          	mov    0x20(%esp),%eax
    81c7:	8b 00                	mov    (%eax),%eax
    81c9:	51                   	push   %ecx
    81ca:	52                   	push   %edx
    81cb:	50                   	push   %eax
    81cc:	8d 83 8c 43 ff ff    	lea    -0xbc74(%ebx),%eax
    81d2:	50                   	push   %eax
    81d3:	e8 5a 11 00 00       	call   9332 <printk>
    81d8:	83 c4 10             	add    $0x10,%esp
}
    81db:	90                   	nop
    81dc:	83 c4 18             	add    $0x18,%esp
    81df:	5b                   	pop    %ebx
    81e0:	c3                   	ret    

000081e1 <do_nmi>:

void do_nmi(long esp, long error_code)
{
    81e1:	83 ec 0c             	sub    $0xc,%esp
    81e4:	e8 09 eb ff ff       	call   6cf2 <__x86.get_pc_thunk.ax>
    81e9:	05 17 9e 02 00       	add    $0x29e17,%eax
	die("nmi", esp, error_code);
    81ee:	83 ec 04             	sub    $0x4,%esp
    81f1:	ff 74 24 18          	pushl  0x18(%esp)
    81f5:	ff 74 24 18          	pushl  0x18(%esp)
    81f9:	8d 80 ae 43 ff ff    	lea    -0xbc52(%eax),%eax
    81ff:	50                   	push   %eax
    8200:	e8 42 fc ff ff       	call   7e47 <die>
    8205:	83 c4 10             	add    $0x10,%esp
}
    8208:	90                   	nop
    8209:	83 c4 0c             	add    $0xc,%esp
    820c:	c3                   	ret    

0000820d <do_debug>:

void do_debug(long esp, long error_code)
{
    820d:	83 ec 0c             	sub    $0xc,%esp
    8210:	e8 dd ea ff ff       	call   6cf2 <__x86.get_pc_thunk.ax>
    8215:	05 eb 9d 02 00       	add    $0x29deb,%eax
	die("debug", esp, error_code);
    821a:	83 ec 04             	sub    $0x4,%esp
    821d:	ff 74 24 18          	pushl  0x18(%esp)
    8221:	ff 74 24 18          	pushl  0x18(%esp)
    8225:	8d 80 b2 43 ff ff    	lea    -0xbc4e(%eax),%eax
    822b:	50                   	push   %eax
    822c:	e8 16 fc ff ff       	call   7e47 <die>
    8231:	83 c4 10             	add    $0x10,%esp
}
    8234:	90                   	nop
    8235:	83 c4 0c             	add    $0xc,%esp
    8238:	c3                   	ret    

00008239 <do_overflow>:

void do_overflow(long esp, long error_code)
{
    8239:	83 ec 0c             	sub    $0xc,%esp
    823c:	e8 b1 ea ff ff       	call   6cf2 <__x86.get_pc_thunk.ax>
    8241:	05 bf 9d 02 00       	add    $0x29dbf,%eax
	die("overflow", esp, error_code);
    8246:	83 ec 04             	sub    $0x4,%esp
    8249:	ff 74 24 18          	pushl  0x18(%esp)
    824d:	ff 74 24 18          	pushl  0x18(%esp)
    8251:	8d 80 b8 43 ff ff    	lea    -0xbc48(%eax),%eax
    8257:	50                   	push   %eax
    8258:	e8 ea fb ff ff       	call   7e47 <die>
    825d:	83 c4 10             	add    $0x10,%esp
}
    8260:	90                   	nop
    8261:	83 c4 0c             	add    $0xc,%esp
    8264:	c3                   	ret    

00008265 <do_bounds>:

void do_bounds(long esp, long error_code)
{
    8265:	83 ec 0c             	sub    $0xc,%esp
    8268:	e8 85 ea ff ff       	call   6cf2 <__x86.get_pc_thunk.ax>
    826d:	05 93 9d 02 00       	add    $0x29d93,%eax
	die("bounds", esp, error_code);
    8272:	83 ec 04             	sub    $0x4,%esp
    8275:	ff 74 24 18          	pushl  0x18(%esp)
    8279:	ff 74 24 18          	pushl  0x18(%esp)
    827d:	8d 80 c1 43 ff ff    	lea    -0xbc3f(%eax),%eax
    8283:	50                   	push   %eax
    8284:	e8 be fb ff ff       	call   7e47 <die>
    8289:	83 c4 10             	add    $0x10,%esp
}
    828c:	90                   	nop
    828d:	83 c4 0c             	add    $0xc,%esp
    8290:	c3                   	ret    

00008291 <do_invalid_op>:

void do_invalid_op(long esp, long error_code)
{
    8291:	83 ec 0c             	sub    $0xc,%esp
    8294:	e8 59 ea ff ff       	call   6cf2 <__x86.get_pc_thunk.ax>
    8299:	05 67 9d 02 00       	add    $0x29d67,%eax
	die("invalid operand", esp, error_code);
    829e:	83 ec 04             	sub    $0x4,%esp
    82a1:	ff 74 24 18          	pushl  0x18(%esp)
    82a5:	ff 74 24 18          	pushl  0x18(%esp)
    82a9:	8d 80 c8 43 ff ff    	lea    -0xbc38(%eax),%eax
    82af:	50                   	push   %eax
    82b0:	e8 92 fb ff ff       	call   7e47 <die>
    82b5:	83 c4 10             	add    $0x10,%esp
}
    82b8:	90                   	nop
    82b9:	83 c4 0c             	add    $0xc,%esp
    82bc:	c3                   	ret    

000082bd <do_device_not_available>:

void do_device_not_available(long esp, long error_code)
{
    82bd:	83 ec 0c             	sub    $0xc,%esp
    82c0:	e8 2d ea ff ff       	call   6cf2 <__x86.get_pc_thunk.ax>
    82c5:	05 3b 9d 02 00       	add    $0x29d3b,%eax
	die("device not available", esp, error_code);
    82ca:	83 ec 04             	sub    $0x4,%esp
    82cd:	ff 74 24 18          	pushl  0x18(%esp)
    82d1:	ff 74 24 18          	pushl  0x18(%esp)
    82d5:	8d 80 d8 43 ff ff    	lea    -0xbc28(%eax),%eax
    82db:	50                   	push   %eax
    82dc:	e8 66 fb ff ff       	call   7e47 <die>
    82e1:	83 c4 10             	add    $0x10,%esp
}
    82e4:	90                   	nop
    82e5:	83 c4 0c             	add    $0xc,%esp
    82e8:	c3                   	ret    

000082e9 <do_coprocessor_segment_overrun>:

void do_coprocessor_segment_overrun(long esp, long error_code)
{
    82e9:	83 ec 0c             	sub    $0xc,%esp
    82ec:	e8 01 ea ff ff       	call   6cf2 <__x86.get_pc_thunk.ax>
    82f1:	05 0f 9d 02 00       	add    $0x29d0f,%eax
	die("coprocessor segment overrun", esp, error_code);
    82f6:	83 ec 04             	sub    $0x4,%esp
    82f9:	ff 74 24 18          	pushl  0x18(%esp)
    82fd:	ff 74 24 18          	pushl  0x18(%esp)
    8301:	8d 80 ed 43 ff ff    	lea    -0xbc13(%eax),%eax
    8307:	50                   	push   %eax
    8308:	e8 3a fb ff ff       	call   7e47 <die>
    830d:	83 c4 10             	add    $0x10,%esp
}
    8310:	90                   	nop
    8311:	83 c4 0c             	add    $0xc,%esp
    8314:	c3                   	ret    

00008315 <do_invalid_TSS>:

void do_invalid_TSS(long esp, long error_code)
{
    8315:	83 ec 0c             	sub    $0xc,%esp
    8318:	e8 d5 e9 ff ff       	call   6cf2 <__x86.get_pc_thunk.ax>
    831d:	05 e3 9c 02 00       	add    $0x29ce3,%eax
	die("invalid TSS", esp, error_code);
    8322:	83 ec 04             	sub    $0x4,%esp
    8325:	ff 74 24 18          	pushl  0x18(%esp)
    8329:	ff 74 24 18          	pushl  0x18(%esp)
    832d:	8d 80 09 44 ff ff    	lea    -0xbbf7(%eax),%eax
    8333:	50                   	push   %eax
    8334:	e8 0e fb ff ff       	call   7e47 <die>
    8339:	83 c4 10             	add    $0x10,%esp
}
    833c:	90                   	nop
    833d:	83 c4 0c             	add    $0xc,%esp
    8340:	c3                   	ret    

00008341 <do_segment_not_present>:

void do_segment_not_present(long esp, long error_code)
{
    8341:	83 ec 0c             	sub    $0xc,%esp
    8344:	e8 a9 e9 ff ff       	call   6cf2 <__x86.get_pc_thunk.ax>
    8349:	05 b7 9c 02 00       	add    $0x29cb7,%eax
	die("segment not present", esp, error_code);
    834e:	83 ec 04             	sub    $0x4,%esp
    8351:	ff 74 24 18          	pushl  0x18(%esp)
    8355:	ff 74 24 18          	pushl  0x18(%esp)
    8359:	8d 80 15 44 ff ff    	lea    -0xbbeb(%eax),%eax
    835f:	50                   	push   %eax
    8360:	e8 e2 fa ff ff       	call   7e47 <die>
    8365:	83 c4 10             	add    $0x10,%esp
}
    8368:	90                   	nop
    8369:	83 c4 0c             	add    $0xc,%esp
    836c:	c3                   	ret    

0000836d <do_stack_segment>:

void do_stack_segment(long esp, long error_code)
{
    836d:	83 ec 0c             	sub    $0xc,%esp
    8370:	e8 7d e9 ff ff       	call   6cf2 <__x86.get_pc_thunk.ax>
    8375:	05 8b 9c 02 00       	add    $0x29c8b,%eax
	die("stack segment", esp, error_code);
    837a:	83 ec 04             	sub    $0x4,%esp
    837d:	ff 74 24 18          	pushl  0x18(%esp)
    8381:	ff 74 24 18          	pushl  0x18(%esp)
    8385:	8d 80 29 44 ff ff    	lea    -0xbbd7(%eax),%eax
    838b:	50                   	push   %eax
    838c:	e8 b6 fa ff ff       	call   7e47 <die>
    8391:	83 c4 10             	add    $0x10,%esp
}
    8394:	90                   	nop
    8395:	83 c4 0c             	add    $0xc,%esp
    8398:	c3                   	ret    

00008399 <do_coprocessor_error>:

void do_coprocessor_error(long esp, long error_code)
{
    8399:	83 ec 0c             	sub    $0xc,%esp
    839c:	e8 51 e9 ff ff       	call   6cf2 <__x86.get_pc_thunk.ax>
    83a1:	05 5f 9c 02 00       	add    $0x29c5f,%eax
	if (last_task_used_math != current)
    83a6:	c7 c2 8c 3b 03 00    	mov    $0x33b8c,%edx
    83ac:	8b 0a                	mov    (%edx),%ecx
    83ae:	c7 c2 80 32 03 00    	mov    $0x33280,%edx
    83b4:	8b 12                	mov    (%edx),%edx
    83b6:	39 d1                	cmp    %edx,%ecx
    83b8:	75 1c                	jne    83d6 <do_coprocessor_error+0x3d>
		return;
	die("coprocessor error", esp, error_code);
    83ba:	83 ec 04             	sub    $0x4,%esp
    83bd:	ff 74 24 18          	pushl  0x18(%esp)
    83c1:	ff 74 24 18          	pushl  0x18(%esp)
    83c5:	8d 80 37 44 ff ff    	lea    -0xbbc9(%eax),%eax
    83cb:	50                   	push   %eax
    83cc:	e8 76 fa ff ff       	call   7e47 <die>
    83d1:	83 c4 10             	add    $0x10,%esp
    83d4:	eb 01                	jmp    83d7 <do_coprocessor_error+0x3e>
		return;
    83d6:	90                   	nop
}
    83d7:	83 c4 0c             	add    $0xc,%esp
    83da:	c3                   	ret    

000083db <do_reserved>:

void do_reserved(long esp, long error_code)
{
    83db:	83 ec 0c             	sub    $0xc,%esp
    83de:	e8 0f e9 ff ff       	call   6cf2 <__x86.get_pc_thunk.ax>
    83e3:	05 1d 9c 02 00       	add    $0x29c1d,%eax
	die("reserved (15,17-47) error", esp, error_code);
    83e8:	83 ec 04             	sub    $0x4,%esp
    83eb:	ff 74 24 18          	pushl  0x18(%esp)
    83ef:	ff 74 24 18          	pushl  0x18(%esp)
    83f3:	8d 80 49 44 ff ff    	lea    -0xbbb7(%eax),%eax
    83f9:	50                   	push   %eax
    83fa:	e8 48 fa ff ff       	call   7e47 <die>
    83ff:	83 c4 10             	add    $0x10,%esp
}
    8402:	90                   	nop
    8403:	83 c4 0c             	add    $0xc,%esp
    8406:	c3                   	ret    

00008407 <trap_init>:
// 下面是异常(陷阱)中断程序初始化子程序.设置它们的中断调用门(中断向量).
// set_trap_gate()与set_system_gate()都使用了中断描述符表IDT中的陷阱门(Trap Gate),它们之间的主要区别在于前者设置的特权级为0,
// 后者是3.因此断点陷阱中断int3,溢出中断overflow和边界出错中断bounds可以由任何程序调用.这两个函数均是嵌入式汇编宏程序,参见
// include/asm/system.h
void trap_init(void)
{
    8407:	56                   	push   %esi
    8408:	53                   	push   %ebx
    8409:	83 ec 10             	sub    $0x10,%esp
    840c:	e8 26 46 00 00       	call   ca37 <__x86.get_pc_thunk.cx>
    8411:	81 c1 ef 9b 02 00    	add    $0x29bef,%ecx
	int i;

	set_trap_gate(0, &divide_error);							// 设置除操作出错的中断向量值.
    8417:	c7 c0 b8 54 00 00    	mov    $0x54b8,%eax
    841d:	89 c6                	mov    %eax,%esi
    841f:	c7 c0 b8 54 00 00    	mov    $0x54b8,%eax
    8425:	8d 58 04             	lea    0x4(%eax),%ebx
    8428:	c7 c0 1f 88 00 00    	mov    $0x881f,%eax
    842e:	89 c2                	mov    %eax,%edx
    8430:	b8 00 00 08 00       	mov    $0x80000,%eax
    8435:	66 89 d0             	mov    %dx,%ax
    8438:	66 ba 00 8f          	mov    $0x8f00,%dx
    843c:	89 06                	mov    %eax,(%esi)
    843e:	89 13                	mov    %edx,(%ebx)
	set_trap_gate(1, &debug);
    8440:	c7 c0 b8 54 00 00    	mov    $0x54b8,%eax
    8446:	8d 58 08             	lea    0x8(%eax),%ebx
    8449:	c7 c0 b8 54 00 00    	mov    $0x54b8,%eax
    844f:	8d 70 0c             	lea    0xc(%eax),%esi
    8452:	c7 c0 54 88 00 00    	mov    $0x8854,%eax
    8458:	89 c2                	mov    %eax,%edx
    845a:	b8 00 00 08 00       	mov    $0x80000,%eax
    845f:	66 89 d0             	mov    %dx,%ax
    8462:	66 ba 00 8f          	mov    $0x8f00,%dx
    8466:	89 03                	mov    %eax,(%ebx)
    8468:	89 16                	mov    %edx,(%esi)
	set_trap_gate(2, &nmi);
    846a:	c7 c0 b8 54 00 00    	mov    $0x54b8,%eax
    8470:	8d 58 10             	lea    0x10(%eax),%ebx
    8473:	c7 c0 b8 54 00 00    	mov    $0x54b8,%eax
    8479:	8d 70 14             	lea    0x14(%eax),%esi
    847c:	c7 c0 5b 88 00 00    	mov    $0x885b,%eax
    8482:	89 c2                	mov    %eax,%edx
    8484:	b8 00 00 08 00       	mov    $0x80000,%eax
    8489:	66 89 d0             	mov    %dx,%ax
    848c:	66 ba 00 8f          	mov    $0x8f00,%dx
    8490:	89 03                	mov    %eax,(%ebx)
    8492:	89 16                	mov    %edx,(%esi)
	set_system_gate(3, &int3);									/* int3-5 can be called from all */
    8494:	c7 c0 b8 54 00 00    	mov    $0x54b8,%eax
    849a:	8d 58 18             	lea    0x18(%eax),%ebx
    849d:	c7 c0 b8 54 00 00    	mov    $0x54b8,%eax
    84a3:	8d 70 1c             	lea    0x1c(%eax),%esi
    84a6:	c7 c0 62 88 00 00    	mov    $0x8862,%eax
    84ac:	89 c2                	mov    %eax,%edx
    84ae:	b8 00 00 08 00       	mov    $0x80000,%eax
    84b3:	66 89 d0             	mov    %dx,%ax
    84b6:	66 ba 00 ef          	mov    $0xef00,%dx
    84ba:	89 03                	mov    %eax,(%ebx)
    84bc:	89 16                	mov    %edx,(%esi)
	set_system_gate(4, &overflow);
    84be:	c7 c0 b8 54 00 00    	mov    $0x54b8,%eax
    84c4:	8d 58 20             	lea    0x20(%eax),%ebx
    84c7:	c7 c0 b8 54 00 00    	mov    $0x54b8,%eax
    84cd:	8d 70 24             	lea    0x24(%eax),%esi
    84d0:	c7 c0 69 88 00 00    	mov    $0x8869,%eax
    84d6:	89 c2                	mov    %eax,%edx
    84d8:	b8 00 00 08 00       	mov    $0x80000,%eax
    84dd:	66 89 d0             	mov    %dx,%ax
    84e0:	66 ba 00 ef          	mov    $0xef00,%dx
    84e4:	89 03                	mov    %eax,(%ebx)
    84e6:	89 16                	mov    %edx,(%esi)
	set_system_gate(5, &bounds);
    84e8:	c7 c0 b8 54 00 00    	mov    $0x54b8,%eax
    84ee:	8d 58 28             	lea    0x28(%eax),%ebx
    84f1:	c7 c0 b8 54 00 00    	mov    $0x54b8,%eax
    84f7:	8d 70 2c             	lea    0x2c(%eax),%esi
    84fa:	c7 c0 70 88 00 00    	mov    $0x8870,%eax
    8500:	89 c2                	mov    %eax,%edx
    8502:	b8 00 00 08 00       	mov    $0x80000,%eax
    8507:	66 89 d0             	mov    %dx,%ax
    850a:	66 ba 00 ef          	mov    $0xef00,%dx
    850e:	89 03                	mov    %eax,(%ebx)
    8510:	89 16                	mov    %edx,(%esi)
	set_trap_gate(6, &invalid_op);
    8512:	c7 c0 b8 54 00 00    	mov    $0x54b8,%eax
    8518:	8d 58 30             	lea    0x30(%eax),%ebx
    851b:	c7 c0 b8 54 00 00    	mov    $0x54b8,%eax
    8521:	8d 70 34             	lea    0x34(%eax),%esi
    8524:	c7 c0 77 88 00 00    	mov    $0x8877,%eax
    852a:	89 c2                	mov    %eax,%edx
    852c:	b8 00 00 08 00       	mov    $0x80000,%eax
    8531:	66 89 d0             	mov    %dx,%ax
    8534:	66 ba 00 8f          	mov    $0x8f00,%dx
    8538:	89 03                	mov    %eax,(%ebx)
    853a:	89 16                	mov    %edx,(%esi)
	set_trap_gate(7, &device_not_available);					// 函数未实现
    853c:	c7 c0 b8 54 00 00    	mov    $0x54b8,%eax
    8542:	8d 58 38             	lea    0x38(%eax),%ebx
    8545:	c7 c0 b8 54 00 00    	mov    $0x54b8,%eax
    854b:	8d 70 3c             	lea    0x3c(%eax),%esi
    854e:	c7 c0 24 7d 00 00    	mov    $0x7d24,%eax
    8554:	89 c2                	mov    %eax,%edx
    8556:	b8 00 00 08 00       	mov    $0x80000,%eax
    855b:	66 89 d0             	mov    %dx,%ax
    855e:	66 ba 00 8f          	mov    $0x8f00,%dx
    8562:	89 03                	mov    %eax,(%ebx)
    8564:	89 16                	mov    %edx,(%esi)
	set_trap_gate(8, &double_fault);
    8566:	c7 c0 b8 54 00 00    	mov    $0x54b8,%eax
    856c:	8d 58 40             	lea    0x40(%eax),%ebx
    856f:	c7 c0 b8 54 00 00    	mov    $0x54b8,%eax
    8575:	8d 70 44             	lea    0x44(%eax),%esi
    8578:	c7 c0 a1 88 00 00    	mov    $0x88a1,%eax
    857e:	89 c2                	mov    %eax,%edx
    8580:	b8 00 00 08 00       	mov    $0x80000,%eax
    8585:	66 89 d0             	mov    %dx,%ax
    8588:	66 ba 00 8f          	mov    $0x8f00,%dx
    858c:	89 03                	mov    %eax,(%ebx)
    858e:	89 16                	mov    %edx,(%esi)
	set_trap_gate(9, &coprocessor_segment_overrun);
    8590:	c7 c0 b8 54 00 00    	mov    $0x54b8,%eax
    8596:	8d 58 48             	lea    0x48(%eax),%ebx
    8599:	c7 c0 b8 54 00 00    	mov    $0x54b8,%eax
    859f:	8d 70 4c             	lea    0x4c(%eax),%esi
    85a2:	c7 c0 7e 88 00 00    	mov    $0x887e,%eax
    85a8:	89 c2                	mov    %eax,%edx
    85aa:	b8 00 00 08 00       	mov    $0x80000,%eax
    85af:	66 89 d0             	mov    %dx,%ax
    85b2:	66 ba 00 8f          	mov    $0x8f00,%dx
    85b6:	89 03                	mov    %eax,(%ebx)
    85b8:	89 16                	mov    %edx,(%esi)
	set_trap_gate(10, &invalid_TSS);
    85ba:	c7 c0 b8 54 00 00    	mov    $0x54b8,%eax
    85c0:	8d 58 50             	lea    0x50(%eax),%ebx
    85c3:	c7 c0 b8 54 00 00    	mov    $0x54b8,%eax
    85c9:	8d 70 54             	lea    0x54(%eax),%esi
    85cc:	c7 c0 d8 88 00 00    	mov    $0x88d8,%eax
    85d2:	89 c2                	mov    %eax,%edx
    85d4:	b8 00 00 08 00       	mov    $0x80000,%eax
    85d9:	66 89 d0             	mov    %dx,%ax
    85dc:	66 ba 00 8f          	mov    $0x8f00,%dx
    85e0:	89 03                	mov    %eax,(%ebx)
    85e2:	89 16                	mov    %edx,(%esi)
	set_trap_gate(11, &segment_not_present);
    85e4:	c7 c0 b8 54 00 00    	mov    $0x54b8,%eax
    85ea:	8d 58 58             	lea    0x58(%eax),%ebx
    85ed:	c7 c0 b8 54 00 00    	mov    $0x54b8,%eax
    85f3:	8d 70 5c             	lea    0x5c(%eax),%esi
    85f6:	c7 c0 df 88 00 00    	mov    $0x88df,%eax
    85fc:	89 c2                	mov    %eax,%edx
    85fe:	b8 00 00 08 00       	mov    $0x80000,%eax
    8603:	66 89 d0             	mov    %dx,%ax
    8606:	66 ba 00 8f          	mov    $0x8f00,%dx
    860a:	89 03                	mov    %eax,(%ebx)
    860c:	89 16                	mov    %edx,(%esi)
	set_trap_gate(12, &stack_segment);
    860e:	c7 c0 b8 54 00 00    	mov    $0x54b8,%eax
    8614:	8d 58 60             	lea    0x60(%eax),%ebx
    8617:	c7 c0 b8 54 00 00    	mov    $0x54b8,%eax
    861d:	8d 70 64             	lea    0x64(%eax),%esi
    8620:	c7 c0 e6 88 00 00    	mov    $0x88e6,%eax
    8626:	89 c2                	mov    %eax,%edx
    8628:	b8 00 00 08 00       	mov    $0x80000,%eax
    862d:	66 89 d0             	mov    %dx,%ax
    8630:	66 ba 00 8f          	mov    $0x8f00,%dx
    8634:	89 03                	mov    %eax,(%ebx)
    8636:	89 16                	mov    %edx,(%esi)
	set_trap_gate(13, &general_protection);
    8638:	c7 c0 b8 54 00 00    	mov    $0x54b8,%eax
    863e:	8d 58 68             	lea    0x68(%eax),%ebx
    8641:	c7 c0 b8 54 00 00    	mov    $0x54b8,%eax
    8647:	8d 70 6c             	lea    0x6c(%eax),%esi
    864a:	c7 c0 ed 88 00 00    	mov    $0x88ed,%eax
    8650:	89 c2                	mov    %eax,%edx
    8652:	b8 00 00 08 00       	mov    $0x80000,%eax
    8657:	66 89 d0             	mov    %dx,%ax
    865a:	66 ba 00 8f          	mov    $0x8f00,%dx
    865e:	89 03                	mov    %eax,(%ebx)
    8660:	89 16                	mov    %edx,(%esi)
	set_trap_gate(14, &page_fault);
    8662:	c7 c0 b8 54 00 00    	mov    $0x54b8,%eax
    8668:	8d 58 70             	lea    0x70(%eax),%ebx
    866b:	c7 c0 b8 54 00 00    	mov    $0x54b8,%eax
    8671:	8d 70 74             	lea    0x74(%eax),%esi
    8674:	c7 c0 cf e2 00 00    	mov    $0xe2cf,%eax
    867a:	89 c2                	mov    %eax,%edx
    867c:	b8 00 00 08 00       	mov    $0x80000,%eax
    8681:	66 89 d0             	mov    %dx,%ax
    8684:	66 ba 00 8f          	mov    $0x8f00,%dx
    8688:	89 03                	mov    %eax,(%ebx)
    868a:	89 16                	mov    %edx,(%esi)
	set_trap_gate(15, &reserved);
    868c:	c7 c0 b8 54 00 00    	mov    $0x54b8,%eax
    8692:	8d 58 78             	lea    0x78(%eax),%ebx
    8695:	c7 c0 b8 54 00 00    	mov    $0x54b8,%eax
    869b:	8d 70 7c             	lea    0x7c(%eax),%esi
    869e:	c7 c0 85 88 00 00    	mov    $0x8885,%eax
    86a4:	89 c2                	mov    %eax,%edx
    86a6:	b8 00 00 08 00       	mov    $0x80000,%eax
    86ab:	66 89 d0             	mov    %dx,%ax
    86ae:	66 ba 00 8f          	mov    $0x8f00,%dx
    86b2:	89 03                	mov    %eax,(%ebx)
    86b4:	89 16                	mov    %edx,(%esi)
	set_trap_gate(16, &coprocessor_error);						// 函数未实现
    86b6:	c7 c0 b8 54 00 00    	mov    $0x54b8,%eax
    86bc:	8d 98 80 00 00 00    	lea    0x80(%eax),%ebx
    86c2:	c7 c0 b8 54 00 00    	mov    $0x54b8,%eax
    86c8:	8d b0 84 00 00 00    	lea    0x84(%eax),%esi
    86ce:	c7 c0 00 7d 00 00    	mov    $0x7d00,%eax
    86d4:	89 c2                	mov    %eax,%edx
    86d6:	b8 00 00 08 00       	mov    $0x80000,%eax
    86db:	66 89 d0             	mov    %dx,%ax
    86de:	66 ba 00 8f          	mov    $0x8f00,%dx
    86e2:	89 03                	mov    %eax,(%ebx)
    86e4:	89 16                	mov    %edx,(%esi)
	set_trap_gate(17, &alignment_check);
    86e6:	c7 c0 b8 54 00 00    	mov    $0x54b8,%eax
    86ec:	8d 98 88 00 00 00    	lea    0x88(%eax),%ebx
    86f2:	c7 c0 b8 54 00 00    	mov    $0x54b8,%eax
    86f8:	8d b0 8c 00 00 00    	lea    0x8c(%eax),%esi
    86fe:	c7 c0 f4 88 00 00    	mov    $0x88f4,%eax
    8704:	89 c2                	mov    %eax,%edx
    8706:	b8 00 00 08 00       	mov    $0x80000,%eax
    870b:	66 89 d0             	mov    %dx,%ax
    870e:	66 ba 00 8f          	mov    $0x8f00,%dx
    8712:	89 03                	mov    %eax,(%ebx)
    8714:	89 16                	mov    %edx,(%esi)
	// 下面把int17-47的陷阱门先均设置为reserved,以后各硬件初始化时会重新设置自己的陷阱门.
	for (i = 18; i < 48; i++)
    8716:	c7 44 24 0c 12 00 00 	movl   $0x12,0xc(%esp)
    871d:	00 
    871e:	eb 47                	jmp    8767 <trap_init+0x360>
		set_trap_gate(i, &reserved);
    8720:	8b 44 24 0c          	mov    0xc(%esp),%eax
    8724:	8d 14 c5 00 00 00 00 	lea    0x0(,%eax,8),%edx
    872b:	c7 c0 b8 54 00 00    	mov    $0x54b8,%eax
    8731:	8d 1c 02             	lea    (%edx,%eax,1),%ebx
    8734:	8b 44 24 0c          	mov    0xc(%esp),%eax
    8738:	8d 14 c5 00 00 00 00 	lea    0x0(,%eax,8),%edx
    873f:	c7 c0 b8 54 00 00    	mov    $0x54b8,%eax
    8745:	01 d0                	add    %edx,%eax
    8747:	8d 70 04             	lea    0x4(%eax),%esi
    874a:	c7 c0 85 88 00 00    	mov    $0x8885,%eax
    8750:	89 c2                	mov    %eax,%edx
    8752:	b8 00 00 08 00       	mov    $0x80000,%eax
    8757:	66 89 d0             	mov    %dx,%ax
    875a:	66 ba 00 8f          	mov    $0x8f00,%dx
    875e:	89 03                	mov    %eax,(%ebx)
    8760:	89 16                	mov    %edx,(%esi)
	for (i = 18; i < 48; i++)
    8762:	83 44 24 0c 01       	addl   $0x1,0xc(%esp)
    8767:	83 7c 24 0c 2f       	cmpl   $0x2f,0xc(%esp)
    876c:	7e b2                	jle    8720 <trap_init+0x319>
	// 设置协处理器中断0x2d(45)陷阱门描述符,并允许其产生中断请求.设置并行口中断描述符.
	set_trap_gate(45, &irq13);
    876e:	c7 c0 b8 54 00 00    	mov    $0x54b8,%eax
    8774:	8d 98 68 01 00 00    	lea    0x168(%eax),%ebx
    877a:	c7 c0 b8 54 00 00    	mov    $0x54b8,%eax
    8780:	8d b0 6c 01 00 00    	lea    0x16c(%eax),%esi
    8786:	c7 c0 8c 88 00 00    	mov    $0x888c,%eax
    878c:	89 c2                	mov    %eax,%edx
    878e:	b8 00 00 08 00       	mov    $0x80000,%eax
    8793:	66 89 d0             	mov    %dx,%ax
    8796:	66 ba 00 8f          	mov    $0x8f00,%dx
    879a:	89 03                	mov    %eax,(%ebx)
    879c:	89 16                	mov    %edx,(%esi)
	outb_p(inb_p(0x21)&0xfb, 0x21);								// 允许8259A主芯片的IRQ2中断请求(连接从芯片)
    879e:	b8 21 00 00 00       	mov    $0x21,%eax
    87a3:	89 c2                	mov    %eax,%edx
    87a5:	ec                   	in     (%dx),%al
    87a6:	eb 00                	jmp    87a8 <trap_init+0x3a1>
    87a8:	eb 00                	jmp    87aa <trap_init+0x3a3>
    87aa:	88 44 24 0b          	mov    %al,0xb(%esp)
    87ae:	0f b6 44 24 0b       	movzbl 0xb(%esp),%eax
    87b3:	0f b6 c0             	movzbl %al,%eax
    87b6:	25 fb 00 00 00       	and    $0xfb,%eax
    87bb:	ba 21 00 00 00       	mov    $0x21,%edx
    87c0:	ee                   	out    %al,(%dx)
    87c1:	eb 00                	jmp    87c3 <trap_init+0x3bc>
    87c3:	eb 00                	jmp    87c5 <trap_init+0x3be>
	outb(inb_p(0xA1)&0xdf, 0xA1);								// 允许8259A从芯片的IRQ13中断请求(协处理器中断)
    87c5:	b8 a1 00 00 00       	mov    $0xa1,%eax
    87ca:	89 c2                	mov    %eax,%edx
    87cc:	ec                   	in     (%dx),%al
    87cd:	eb 00                	jmp    87cf <trap_init+0x3c8>
    87cf:	eb 00                	jmp    87d1 <trap_init+0x3ca>
    87d1:	88 44 24 0a          	mov    %al,0xa(%esp)
    87d5:	0f b6 44 24 0a       	movzbl 0xa(%esp),%eax
    87da:	0f b6 c0             	movzbl %al,%eax
    87dd:	25 df 00 00 00       	and    $0xdf,%eax
    87e2:	ba a1 00 00 00       	mov    $0xa1,%edx
    87e7:	ee                   	out    %al,(%dx)
	set_trap_gate(39, &parallel_interrupt);						// 设置并行口1的中断0x27陷阱门描述符.
    87e8:	c7 c0 b8 54 00 00    	mov    $0x54b8,%eax
    87ee:	8d 98 38 01 00 00    	lea    0x138(%eax),%ebx
    87f4:	c7 c0 b8 54 00 00    	mov    $0x54b8,%eax
    87fa:	8d b0 3c 01 00 00    	lea    0x13c(%eax),%esi
    8800:	c7 c0 40 7e 00 00    	mov    $0x7e40,%eax
    8806:	89 c2                	mov    %eax,%edx
    8808:	b8 00 00 08 00       	mov    $0x80000,%eax
    880d:	66 89 d0             	mov    %dx,%ax
    8810:	66 ba 00 8f          	mov    $0x8f00,%dx
    8814:	89 03                	mov    %eax,(%ebx)
    8816:	89 16                	mov    %edx,(%esi)
}
    8818:	90                   	nop
    8819:	83 c4 10             	add    $0x10,%esp
    881c:	5b                   	pop    %ebx
    881d:	5e                   	pop    %esi
    881e:	c3                   	ret    

0000881f <divide_error>:
    881f:	68 02 81 00 00       	push   $0x8102

00008824 <no_error_code>:
    8824:	87 04 24             	xchg   %eax,(%esp)
    8827:	53                   	push   %ebx
    8828:	51                   	push   %ecx
    8829:	52                   	push   %edx
    882a:	57                   	push   %edi
    882b:	56                   	push   %esi
    882c:	55                   	push   %ebp
    882d:	1e                   	push   %ds
    882e:	06                   	push   %es
    882f:	0f a0                	push   %fs
    8831:	6a 00                	push   $0x0
    8833:	8d 54 24 2c          	lea    0x2c(%esp),%edx
    8837:	52                   	push   %edx
    8838:	ba 10 00 00 00       	mov    $0x10,%edx
    883d:	8e da                	mov    %edx,%ds
    883f:	8e c2                	mov    %edx,%es
    8841:	8e e2                	mov    %edx,%fs
    8843:	ff d0                	call   *%eax
    8845:	83 c4 08             	add    $0x8,%esp
    8848:	0f a1                	pop    %fs
    884a:	07                   	pop    %es
    884b:	1f                   	pop    %ds
    884c:	5d                   	pop    %ebp
    884d:	5e                   	pop    %esi
    884e:	5f                   	pop    %edi
    884f:	5a                   	pop    %edx
    8850:	59                   	pop    %ecx
    8851:	5b                   	pop    %ebx
    8852:	58                   	pop    %eax
    8853:	cf                   	iret   

00008854 <debug>:
    8854:	68 2e 81 00 00       	push   $0x812e
    8859:	eb c9                	jmp    8824 <no_error_code>

0000885b <nmi>:
    885b:	68 e1 81 00 00       	push   $0x81e1
    8860:	eb c2                	jmp    8824 <no_error_code>

00008862 <int3>:
    8862:	68 2e 81 00 00       	push   $0x812e
    8867:	eb bb                	jmp    8824 <no_error_code>

00008869 <overflow>:
    8869:	68 39 82 00 00       	push   $0x8239
    886e:	eb b4                	jmp    8824 <no_error_code>

00008870 <bounds>:
    8870:	68 65 82 00 00       	push   $0x8265
    8875:	eb ad                	jmp    8824 <no_error_code>

00008877 <invalid_op>:
    8877:	68 91 82 00 00       	push   $0x8291
    887c:	eb a6                	jmp    8824 <no_error_code>

0000887e <coprocessor_segment_overrun>:
    887e:	68 e9 82 00 00       	push   $0x82e9
    8883:	eb 9f                	jmp    8824 <no_error_code>

00008885 <reserved>:
    8885:	68 db 83 00 00       	push   $0x83db
    888a:	eb 98                	jmp    8824 <no_error_code>

0000888c <irq13>:
    888c:	50                   	push   %eax
    888d:	30 c0                	xor    %al,%al
    888f:	e6 f0                	out    %al,$0xf0
    8891:	b0 20                	mov    $0x20,%al
    8893:	e6 20                	out    %al,$0x20
    8895:	eb 00                	jmp    8897 <irq13+0xb>
    8897:	eb 00                	jmp    8899 <irq13+0xd>
    8899:	e6 a0                	out    %al,$0xa0
    889b:	58                   	pop    %eax
    889c:	e9 5f f4 ff ff       	jmp    7d00 <coprocessor_error>

000088a1 <double_fault>:
    88a1:	68 7e 80 00 00       	push   $0x807e

000088a6 <error_code>:
    88a6:	87 44 24 04          	xchg   %eax,0x4(%esp)
    88aa:	87 1c 24             	xchg   %ebx,(%esp)
    88ad:	51                   	push   %ecx
    88ae:	52                   	push   %edx
    88af:	57                   	push   %edi
    88b0:	56                   	push   %esi
    88b1:	55                   	push   %ebp
    88b2:	1e                   	push   %ds
    88b3:	06                   	push   %es
    88b4:	0f a0                	push   %fs
    88b6:	50                   	push   %eax
    88b7:	8d 44 24 2c          	lea    0x2c(%esp),%eax
    88bb:	50                   	push   %eax
    88bc:	b8 10 00 00 00       	mov    $0x10,%eax
    88c1:	8e d8                	mov    %eax,%ds
    88c3:	8e c0                	mov    %eax,%es
    88c5:	8e e0                	mov    %eax,%fs
    88c7:	ff d3                	call   *%ebx
    88c9:	83 c4 08             	add    $0x8,%esp
    88cc:	0f a1                	pop    %fs
    88ce:	07                   	pop    %es
    88cf:	1f                   	pop    %ds
    88d0:	5d                   	pop    %ebp
    88d1:	5e                   	pop    %esi
    88d2:	5f                   	pop    %edi
    88d3:	5a                   	pop    %edx
    88d4:	59                   	pop    %ecx
    88d5:	5b                   	pop    %ebx
    88d6:	58                   	pop    %eax
    88d7:	cf                   	iret   

000088d8 <invalid_TSS>:
    88d8:	68 15 83 00 00       	push   $0x8315
    88dd:	eb c7                	jmp    88a6 <error_code>

000088df <segment_not_present>:
    88df:	68 41 83 00 00       	push   $0x8341
    88e4:	eb c0                	jmp    88a6 <error_code>

000088e6 <stack_segment>:
    88e6:	68 6d 83 00 00       	push   $0x836d
    88eb:	eb b9                	jmp    88a6 <error_code>

000088ed <general_protection>:
    88ed:	68 aa 80 00 00       	push   $0x80aa
    88f2:	eb b2                	jmp    88a6 <error_code>

000088f4 <alignment_check>:
    88f4:	68 d6 80 00 00       	push   $0x80d6
    88f9:	eb ab                	jmp    88a6 <error_code>

000088fb <verify_area>:
// 可以通过设置该标志来达到使用本函数同样的目的.该函数对当前进程逻辑地址从addr到addr + size这一段范围以页为单位执行写操作前
// 的检测操作.由于检测判断是以页面为单位进行操作,因此程序首先需要找出addr所在页面开始地址start,然后start加上进程数据段基址,
// 使这个start变换成CPU 4GB线性空间中的地址.最后循环调用write_verify()对指定大小的内存空间进行写前验证.若页面是只读的,
// 则执行共享检验和复制页面操作(写时复制).
void verify_area(void * addr, int size)
{
    88fb:	56                   	push   %esi
    88fc:	53                   	push   %ebx
    88fd:	83 ec 14             	sub    $0x14,%esp
    8900:	e8 f5 e3 ff ff       	call   6cfa <__x86.get_pc_thunk.bx>
    8905:	81 c3 fb 96 02 00    	add    $0x296fb,%ebx
	unsigned long start;

	// 首先将起始地址start调整为其所在页的左边界开始位置,同时相应地调整验证区域大小.下句中的start & 0xfff用来获得指定起始位置addr
	// (也即start)在所在页面中的偏移值,原验证范围size加上这个偏移值即扩展成以addr所在页面起始位置开始的范围值.因此在30行上也需要
	// 把验证开始位置start调整成页面边界值.
	start = (unsigned long) addr;
    890b:	8b 44 24 20          	mov    0x20(%esp),%eax
    890f:	89 44 24 0c          	mov    %eax,0xc(%esp)
	size += start & 0xfff;
    8913:	8b 44 24 0c          	mov    0xc(%esp),%eax
    8917:	25 ff 0f 00 00       	and    $0xfff,%eax
    891c:	89 c2                	mov    %eax,%edx
    891e:	8b 44 24 24          	mov    0x24(%esp),%eax
    8922:	01 d0                	add    %edx,%eax
    8924:	89 44 24 24          	mov    %eax,0x24(%esp)
	start &= 0xfffff000;					// 此时start是当前进程空间中的逻辑地址.
    8928:	81 64 24 0c 00 f0 ff 	andl   $0xfffff000,0xc(%esp)
    892f:	ff 
	// 下面把start加上进程数据段在线性地址空间中的起始基址,变成系统整个线性空间中的地址位置.对于Linux0.1x内核,其数据段和代码段在
	// 线性地址空间中的基址和限长均相同.然后循环进行写页面验证.若页面不可写,则复制页面.(mm/memory.c)
	start += get_base(current->ldt[2]);
    8930:	c7 c0 80 32 03 00    	mov    $0x33280,%eax
    8936:	8b 00                	mov    (%eax),%eax
    8938:	05 a8 03 00 00       	add    $0x3a8,%eax
    893d:	8d 70 02             	lea    0x2(%eax),%esi
    8940:	c7 c0 80 32 03 00    	mov    $0x33280,%eax
    8946:	8b 00                	mov    (%eax),%eax
    8948:	05 a8 03 00 00       	add    $0x3a8,%eax
    894d:	8d 48 04             	lea    0x4(%eax),%ecx
    8950:	c7 c0 80 32 03 00    	mov    $0x33280,%eax
    8956:	8b 00                	mov    (%eax),%eax
    8958:	05 a8 03 00 00       	add    $0x3a8,%eax
    895d:	83 c0 07             	add    $0x7,%eax
    8960:	8a 30                	mov    (%eax),%dh
    8962:	8a 11                	mov    (%ecx),%dl
    8964:	c1 e2 10             	shl    $0x10,%edx
    8967:	66 8b 16             	mov    (%esi),%dx
    896a:	89 d0                	mov    %edx,%eax
    896c:	89 44 24 08          	mov    %eax,0x8(%esp)
    8970:	8b 44 24 08          	mov    0x8(%esp),%eax
    8974:	01 44 24 0c          	add    %eax,0xc(%esp)
	while (size > 0) {
    8978:	eb 1f                	jmp    8999 <verify_area+0x9e>
		size -= 4096;
    897a:	81 6c 24 24 00 10 00 	subl   $0x1000,0x24(%esp)
    8981:	00 
		write_verify(start);				// include/linux/sched.h
    8982:	83 ec 0c             	sub    $0xc,%esp
    8985:	ff 74 24 18          	pushl  0x18(%esp)
    8989:	e8 25 48 00 00       	call   d1b3 <write_verify>
    898e:	83 c4 10             	add    $0x10,%esp
		start += 4096;
    8991:	81 44 24 0c 00 10 00 	addl   $0x1000,0xc(%esp)
    8998:	00 
	while (size > 0) {
    8999:	83 7c 24 24 00       	cmpl   $0x0,0x24(%esp)
    899e:	7f da                	jg     897a <verify_area+0x7f>
	}
}
    89a0:	90                   	nop
    89a1:	83 c4 14             	add    $0x14,%esp
    89a4:	5b                   	pop    %ebx
    89a5:	5e                   	pop    %esi
    89a6:	c3                   	ret    

000089a7 <copy_mem>:
// 复制内存页表.
// 参数nr是新任务号;p是新任务数据结构指针.该函数为新任务在线性地址空间中设置代码段和数据段基址,限长,并复制页表.由于Linux系统采用写时
// 复制(copy on write)技术,因此这里仅为新进程设置自己的页目录表项和页表项,而没有实际为新进程分配物理内存页面.此时新进程与其父进程
// 共享所有内存页面.操作成功返回0,否则返回出错号.
int copy_mem(int nr, struct task_struct * p)
{
    89a7:	57                   	push   %edi
    89a8:	56                   	push   %esi
    89a9:	53                   	push   %ebx
    89aa:	83 ec 30             	sub    $0x30,%esp
    89ad:	e8 48 e3 ff ff       	call   6cfa <__x86.get_pc_thunk.bx>
    89b2:	81 c3 4e 96 02 00    	add    $0x2964e,%ebx

	// 首先取当前进程局部描述符表中代码段描述符和数据段描述符项中的段限长(字节数).
	// 0x0f是代码段选择符;0x17是数据段选择符.然后取当前进程代码段和数据段的线性地址空间中的基地址.由于Linux0.12内核还不支持代码和数据段分立的情况,
	// 因此这里需要检查代码段和数据段基址是否都相同,并且要求数据段的长度至少不小于代码段的长度,否则内核显示出错信息,并停止运行.
	// get_limit()和get_base()定义在include/linux/sched.h.
	code_limit = get_limit(0x0f);
    89b8:	b8 0f 00 00 00       	mov    $0xf,%eax
    89bd:	0f 03 c0             	lsl    %ax,%eax
    89c0:	40                   	inc    %eax
    89c1:	89 44 24 2c          	mov    %eax,0x2c(%esp)
    89c5:	8b 44 24 2c          	mov    0x2c(%esp),%eax
    89c9:	89 44 24 28          	mov    %eax,0x28(%esp)
	data_limit = get_limit(0x17);
    89cd:	b8 17 00 00 00       	mov    $0x17,%eax
    89d2:	0f 03 c0             	lsl    %ax,%eax
    89d5:	40                   	inc    %eax
    89d6:	89 44 24 24          	mov    %eax,0x24(%esp)
    89da:	8b 44 24 24          	mov    0x24(%esp),%eax
    89de:	89 44 24 20          	mov    %eax,0x20(%esp)
	old_code_base = get_base(current->ldt[1]);
    89e2:	c7 c0 80 32 03 00    	mov    $0x33280,%eax
    89e8:	8b 00                	mov    (%eax),%eax
    89ea:	05 a0 03 00 00       	add    $0x3a0,%eax
    89ef:	8d 70 02             	lea    0x2(%eax),%esi
    89f2:	c7 c0 80 32 03 00    	mov    $0x33280,%eax
    89f8:	8b 00                	mov    (%eax),%eax
    89fa:	05 a0 03 00 00       	add    $0x3a0,%eax
    89ff:	8d 48 04             	lea    0x4(%eax),%ecx
    8a02:	c7 c0 80 32 03 00    	mov    $0x33280,%eax
    8a08:	8b 00                	mov    (%eax),%eax
    8a0a:	05 a0 03 00 00       	add    $0x3a0,%eax
    8a0f:	83 c0 07             	add    $0x7,%eax
    8a12:	8a 30                	mov    (%eax),%dh
    8a14:	8a 11                	mov    (%ecx),%dl
    8a16:	c1 e2 10             	shl    $0x10,%edx
    8a19:	66 8b 16             	mov    (%esi),%dx
    8a1c:	89 d0                	mov    %edx,%eax
    8a1e:	89 44 24 1c          	mov    %eax,0x1c(%esp)
    8a22:	8b 44 24 1c          	mov    0x1c(%esp),%eax
    8a26:	89 44 24 18          	mov    %eax,0x18(%esp)
	old_data_base = get_base(current->ldt[2]);
    8a2a:	c7 c0 80 32 03 00    	mov    $0x33280,%eax
    8a30:	8b 00                	mov    (%eax),%eax
    8a32:	05 a8 03 00 00       	add    $0x3a8,%eax
    8a37:	8d 78 02             	lea    0x2(%eax),%edi
    8a3a:	c7 c0 80 32 03 00    	mov    $0x33280,%eax
    8a40:	8b 00                	mov    (%eax),%eax
    8a42:	05 a8 03 00 00       	add    $0x3a8,%eax
    8a47:	8d 48 04             	lea    0x4(%eax),%ecx
    8a4a:	c7 c0 80 32 03 00    	mov    $0x33280,%eax
    8a50:	8b 00                	mov    (%eax),%eax
    8a52:	05 a8 03 00 00       	add    $0x3a8,%eax
    8a57:	83 c0 07             	add    $0x7,%eax
    8a5a:	8a 30                	mov    (%eax),%dh
    8a5c:	8a 11                	mov    (%ecx),%dl
    8a5e:	c1 e2 10             	shl    $0x10,%edx
    8a61:	66 8b 17             	mov    (%edi),%dx
    8a64:	89 d0                	mov    %edx,%eax
    8a66:	89 44 24 14          	mov    %eax,0x14(%esp)
    8a6a:	8b 44 24 14          	mov    0x14(%esp),%eax
    8a6e:	89 44 24 10          	mov    %eax,0x10(%esp)
	if (old_data_base != old_code_base)
    8a72:	8b 44 24 10          	mov    0x10(%esp),%eax
    8a76:	3b 44 24 18          	cmp    0x18(%esp),%eax
    8a7a:	74 12                	je     8a8e <copy_mem+0xe7>
		panic("We don't support separate I&D");
    8a7c:	83 ec 0c             	sub    $0xc,%esp
    8a7f:	8d 83 64 44 ff ff    	lea    -0xbb9c(%ebx),%eax
    8a85:	50                   	push   %eax
    8a86:	e8 53 08 00 00       	call   92de <panic>
    8a8b:	83 c4 10             	add    $0x10,%esp
	if (data_limit < code_limit)
    8a8e:	8b 44 24 20          	mov    0x20(%esp),%eax
    8a92:	3b 44 24 28          	cmp    0x28(%esp),%eax
    8a96:	73 12                	jae    8aaa <copy_mem+0x103>
		panic("Bad data_limit");
    8a98:	83 ec 0c             	sub    $0xc,%esp
    8a9b:	8d 83 82 44 ff ff    	lea    -0xbb7e(%ebx),%eax
    8aa1:	50                   	push   %eax
    8aa2:	e8 37 08 00 00       	call   92de <panic>
    8aa7:	83 c4 10             	add    $0x10,%esp
	// 然后设置创建中的新进程在线性地址空间中的基地址等于(64MB*其任务号),并用该值设置新进程局部描述符表中段描述符中的基地址.接着设置新进程的页目录
	// 表项和页表项,即复制当前进程(父进程)的页目录表项和页表项.此时子进程共享父进程的内存页面.
	// 正常情况下copy_page_tables()返回0,否则表示出错,则释放刚申请的页表项.
	new_data_base = new_code_base = nr * TASK_SIZE;
    8aaa:	8b 44 24 40          	mov    0x40(%esp),%eax
    8aae:	c1 e0 1a             	shl    $0x1a,%eax
    8ab1:	89 44 24 0c          	mov    %eax,0xc(%esp)
    8ab5:	8b 44 24 0c          	mov    0xc(%esp),%eax
    8ab9:	89 44 24 08          	mov    %eax,0x8(%esp)
	p->start_code = new_code_base;
    8abd:	8b 44 24 44          	mov    0x44(%esp),%eax
    8ac1:	8b 54 24 0c          	mov    0xc(%esp),%edx
    8ac5:	89 90 18 02 00 00    	mov    %edx,0x218(%eax)
	set_base(p->ldt[1], new_code_base);
    8acb:	8b 44 24 44          	mov    0x44(%esp),%eax
    8acf:	05 a0 03 00 00       	add    $0x3a0,%eax
    8ad4:	8d 48 02             	lea    0x2(%eax),%ecx
    8ad7:	8b 44 24 44          	mov    0x44(%esp),%eax
    8adb:	05 a0 03 00 00       	add    $0x3a0,%eax
    8ae0:	8d 70 04             	lea    0x4(%eax),%esi
    8ae3:	8b 44 24 44          	mov    0x44(%esp),%eax
    8ae7:	05 a0 03 00 00       	add    $0x3a0,%eax
    8aec:	8d 78 07             	lea    0x7(%eax),%edi
    8aef:	8b 44 24 0c          	mov    0xc(%esp),%eax
    8af3:	89 c2                	mov    %eax,%edx
    8af5:	66 89 11             	mov    %dx,(%ecx)
    8af8:	c1 ca 10             	ror    $0x10,%edx
    8afb:	88 16                	mov    %dl,(%esi)
    8afd:	88 37                	mov    %dh,(%edi)
    8aff:	89 d0                	mov    %edx,%eax
    8b01:	89 44 24 04          	mov    %eax,0x4(%esp)
	set_base(p->ldt[2], new_data_base);
    8b05:	8b 44 24 44          	mov    0x44(%esp),%eax
    8b09:	05 a8 03 00 00       	add    $0x3a8,%eax
    8b0e:	8d 48 02             	lea    0x2(%eax),%ecx
    8b11:	8b 44 24 44          	mov    0x44(%esp),%eax
    8b15:	05 a8 03 00 00       	add    $0x3a8,%eax
    8b1a:	8d 70 04             	lea    0x4(%eax),%esi
    8b1d:	8b 44 24 44          	mov    0x44(%esp),%eax
    8b21:	05 a8 03 00 00       	add    $0x3a8,%eax
    8b26:	8d 78 07             	lea    0x7(%eax),%edi
    8b29:	8b 44 24 08          	mov    0x8(%esp),%eax
    8b2d:	89 c2                	mov    %eax,%edx
    8b2f:	66 89 11             	mov    %dx,(%ecx)
    8b32:	c1 ca 10             	ror    $0x10,%edx
    8b35:	88 16                	mov    %dl,(%esi)
    8b37:	88 37                	mov    %dh,(%edi)
    8b39:	89 d0                	mov    %edx,%eax
    8b3b:	89 04 24             	mov    %eax,(%esp)
	if (copy_page_tables(old_data_base, new_data_base, data_limit)) {
    8b3e:	8b 44 24 20          	mov    0x20(%esp),%eax
    8b42:	83 ec 04             	sub    $0x4,%esp
    8b45:	50                   	push   %eax
    8b46:	ff 74 24 10          	pushl  0x10(%esp)
    8b4a:	ff 74 24 1c          	pushl  0x1c(%esp)
    8b4e:	e8 f8 40 00 00       	call   cc4b <copy_page_tables>
    8b53:	83 c4 10             	add    $0x10,%esp
    8b56:	85 c0                	test   %eax,%eax
    8b58:	74 1a                	je     8b74 <copy_mem+0x1cd>
		free_page_tables(new_data_base, data_limit);
    8b5a:	83 ec 08             	sub    $0x8,%esp
    8b5d:	ff 74 24 28          	pushl  0x28(%esp)
    8b61:	ff 74 24 14          	pushl  0x14(%esp)
    8b65:	e8 9b 3f 00 00       	call   cb05 <free_page_tables>
    8b6a:	83 c4 10             	add    $0x10,%esp
		return -ENOMEM;
    8b6d:	b8 f4 ff ff ff       	mov    $0xfffffff4,%eax
    8b72:	eb 05                	jmp    8b79 <copy_mem+0x1d2>
	}
	return 0;
    8b74:	b8 00 00 00 00       	mov    $0x0,%eax
}
    8b79:	83 c4 30             	add    $0x30,%esp
    8b7c:	5b                   	pop    %ebx
    8b7d:	5e                   	pop    %esi
    8b7e:	5f                   	pop    %edi
    8b7f:	c3                   	ret    

00008b80 <copy_process>:
// 其中参数nr是调用find_empty_process()分配的任务数组项号.
int copy_process(int nr, long ebp, long edi, long esi, long gs, long none,
		long ebx, long ecx, long edx, long orig_eax,
		long fs, long es, long ds,
		long eip, long cs, long eflags, long esp, long ss)
{
    8b80:	55                   	push   %ebp
    8b81:	57                   	push   %edi
    8b82:	56                   	push   %esi
    8b83:	53                   	push   %ebx
    8b84:	83 ec 2c             	sub    $0x2c,%esp
    8b87:	e8 66 e1 ff ff       	call   6cf2 <__x86.get_pc_thunk.ax>
    8b8c:	05 74 94 02 00       	add    $0x29474,%eax
    8b91:	89 44 24 04          	mov    %eax,0x4(%esp)
	int i;
	struct file *f;

	// 首先为新任务数据结构分配内存.如果内存分配出错,则返回出错码并退出.然后将新任务结构指针放入任务数组的nr项中.其中nr为任务号,由前面
	// find_empty_process()返回.接着把当前进程任务结构复制到刚申请到的内存页面p开始处.
	p = (struct task_struct *) get_free_page();
    8b95:	8b 5c 24 04          	mov    0x4(%esp),%ebx
    8b99:	e8 4e 54 00 00       	call   dfec <get_free_page>
    8b9e:	89 44 24 18          	mov    %eax,0x18(%esp)
	if (!p)
    8ba2:	83 7c 24 18 00       	cmpl   $0x0,0x18(%esp)
    8ba7:	75 0a                	jne    8bb3 <copy_process+0x33>
		return -EAGAIN;
    8ba9:	b8 f5 ff ff ff       	mov    $0xfffffff5,%eax
    8bae:	e9 59 06 00 00       	jmp    920c <copy_process+0x68c>
	task[nr] = p;
    8bb3:	8b 44 24 04          	mov    0x4(%esp),%eax
    8bb7:	c7 c0 a0 32 03 00    	mov    $0x332a0,%eax
    8bbd:	8b 54 24 40          	mov    0x40(%esp),%edx
    8bc1:	8b 4c 24 18          	mov    0x18(%esp),%ecx
    8bc5:	89 0c 90             	mov    %ecx,(%eax,%edx,4)
	*p = *current;							/* NOTE! this doesn't copy the supervisor stack */	/* 注意!这样不会复制超级用户堆栈(只复制进程结构) */
    8bc8:	8b 44 24 04          	mov    0x4(%esp),%eax
    8bcc:	c7 c0 80 32 03 00    	mov    $0x33280,%eax
    8bd2:	8b 00                	mov    (%eax),%eax
    8bd4:	8b 54 24 18          	mov    0x18(%esp),%edx
    8bd8:	89 c3                	mov    %eax,%ebx
    8bda:	b8 21 01 00 00       	mov    $0x121,%eax
    8bdf:	89 d7                	mov    %edx,%edi
    8be1:	89 de                	mov    %ebx,%esi
    8be3:	89 c1                	mov    %eax,%ecx
    8be5:	f3 a5                	rep movsl %ds:(%esi),%es:(%edi)
	//	memcpy(p, current, sizeof(struct task_struct));
	// 随后对复制来的进程结构内容进行一些修改,作为新进程的任务结构.先将新进程的状态置为不可中断等待状态,以防止内核调试其执行.然后设置新进程
	// 的进程号pid,并初始化进程运行时间片值等于其priorty值(一般为16个嘀嗒).接着复位新进程的信号位图,报警定时值,会话(session)领导标志
	// leader,进程及其子进程在内核和用户态运行时间统计值,还设置进程开始运行的系统时间start_time.
	p->state = TASK_UNINTERRUPTIBLE;
    8be7:	8b 44 24 18          	mov    0x18(%esp),%eax
    8beb:	c7 00 02 00 00 00    	movl   $0x2,(%eax)
	p->pid = last_pid;						// 新进程号.也由find_empty_process()得到.
    8bf1:	8b 44 24 04          	mov    0x4(%esp),%eax
    8bf5:	8b 90 c8 1e 00 00    	mov    0x1ec8(%eax),%edx
    8bfb:	8b 44 24 18          	mov    0x18(%esp),%eax
    8bff:	89 90 2c 02 00 00    	mov    %edx,0x22c(%eax)
	p->counter = p->priority;				// 运行时间片值(嘀嗒数).
    8c05:	8b 44 24 18          	mov    0x18(%esp),%eax
    8c09:	8b 50 08             	mov    0x8(%eax),%edx
    8c0c:	8b 44 24 18          	mov    0x18(%esp),%eax
    8c10:	89 50 04             	mov    %edx,0x4(%eax)
	p->signal = 0;							// 信号位图.
    8c13:	8b 44 24 18          	mov    0x18(%esp),%eax
    8c17:	c7 40 0c 00 00 00 00 	movl   $0x0,0xc(%eax)
	p->alarm = 0;							// 报警定时值(嘀嗒数).
    8c1e:	8b 44 24 18          	mov    0x18(%esp),%eax
    8c22:	c7 80 dc 02 00 00 00 	movl   $0x0,0x2dc(%eax)
    8c29:	00 00 00 
	p->leader = 0;							/* process leadership doesn't inherit */	/* 进程的领导权是不能继承的 */
    8c2c:	8b 44 24 18          	mov    0x18(%esp),%eax
    8c30:	c7 80 38 02 00 00 00 	movl   $0x0,0x238(%eax)
    8c37:	00 00 00 
	p->utime = p->stime = 0;				// 用户态时间和核心态运行时间.
    8c3a:	8b 44 24 18          	mov    0x18(%esp),%eax
    8c3e:	c7 80 e4 02 00 00 00 	movl   $0x0,0x2e4(%eax)
    8c45:	00 00 00 
    8c48:	8b 44 24 18          	mov    0x18(%esp),%eax
    8c4c:	8b 90 e4 02 00 00    	mov    0x2e4(%eax),%edx
    8c52:	8b 44 24 18          	mov    0x18(%esp),%eax
    8c56:	89 90 e0 02 00 00    	mov    %edx,0x2e0(%eax)
	p->cutime = p->cstime = 0;				// 子进程用户态和核心态运行时间.
    8c5c:	8b 44 24 18          	mov    0x18(%esp),%eax
    8c60:	c7 80 ec 02 00 00 00 	movl   $0x0,0x2ec(%eax)
    8c67:	00 00 00 
    8c6a:	8b 44 24 18          	mov    0x18(%esp),%eax
    8c6e:	8b 90 ec 02 00 00    	mov    0x2ec(%eax),%edx
    8c74:	8b 44 24 18          	mov    0x18(%esp),%eax
    8c78:	89 90 e8 02 00 00    	mov    %edx,0x2e8(%eax)
	p->start_time = jiffies;				// 进程开始运行时间(当前时间滴答数).
    8c7e:	8b 44 24 04          	mov    0x4(%esp),%eax
    8c82:	c7 c0 80 3b 03 00    	mov    $0x33b80,%eax
    8c88:	8b 00                	mov    (%eax),%eax
    8c8a:	89 c2                	mov    %eax,%edx
    8c8c:	8b 44 24 18          	mov    0x18(%esp),%eax
    8c90:	89 90 f0 02 00 00    	mov    %edx,0x2f0(%eax)
	// 再修改任务状态段TSS数据.由于系统给任务结构p分配了1页新内存,所以(PAGE_SIZE + (long) p)让esp0正好指向该页顶端.ss0:esp0用作程序在内核
	// 态执行时的栈.另外,在第3章中我们已经知道,每个任务在GDT表中都有两个段描述符,一个是任务的TSS段描述符,另一个是任务的LDT表段描述符.下面语句就是
	// 把GDT中本任务LDT段描述符的选择符保存在本任务的TSS段.当CPU执行切换任务时,会自动从TSS中把LDT段描述符的选择符加载到ldtr寄存器中.
	p->tss.back_link = 0;
    8c96:	8b 44 24 18          	mov    0x18(%esp),%eax
    8c9a:	c7 80 b0 03 00 00 00 	movl   $0x0,0x3b0(%eax)
    8ca1:	00 00 00 
	p->tss.esp0 = PAGE_SIZE + (long) p;		// 任务内核态栈指针.
    8ca4:	8b 44 24 18          	mov    0x18(%esp),%eax
    8ca8:	8d 90 00 10 00 00    	lea    0x1000(%eax),%edx
    8cae:	8b 44 24 18          	mov    0x18(%esp),%eax
    8cb2:	89 90 b4 03 00 00    	mov    %edx,0x3b4(%eax)
	p->tss.ss0 = 0x10;              		// 内核态栈的段选择符(与内核数据段相同).
    8cb8:	8b 44 24 18          	mov    0x18(%esp),%eax
    8cbc:	c7 80 b8 03 00 00 10 	movl   $0x10,0x3b8(%eax)
    8cc3:	00 00 00 
	p->tss.eip = eip;						// 指令代码指针.
    8cc6:	8b 44 24 18          	mov    0x18(%esp),%eax
    8cca:	8b 54 24 74          	mov    0x74(%esp),%edx
    8cce:	89 90 d0 03 00 00    	mov    %edx,0x3d0(%eax)
	p->tss.eflags = eflags;					// 标志寄存器.
    8cd4:	8b 44 24 18          	mov    0x18(%esp),%eax
    8cd8:	8b 54 24 7c          	mov    0x7c(%esp),%edx
    8cdc:	89 90 d4 03 00 00    	mov    %edx,0x3d4(%eax)
	p->tss.eax = 0;							// 这是当fork()返回时新进程会返回0的原因所在.
    8ce2:	8b 44 24 18          	mov    0x18(%esp),%eax
    8ce6:	c7 80 d8 03 00 00 00 	movl   $0x0,0x3d8(%eax)
    8ced:	00 00 00 
	p->tss.ecx = ecx;
    8cf0:	8b 44 24 18          	mov    0x18(%esp),%eax
    8cf4:	8b 54 24 5c          	mov    0x5c(%esp),%edx
    8cf8:	89 90 dc 03 00 00    	mov    %edx,0x3dc(%eax)
	p->tss.edx = edx;
    8cfe:	8b 44 24 18          	mov    0x18(%esp),%eax
    8d02:	8b 54 24 60          	mov    0x60(%esp),%edx
    8d06:	89 90 e0 03 00 00    	mov    %edx,0x3e0(%eax)
	p->tss.ebx = ebx;
    8d0c:	8b 44 24 18          	mov    0x18(%esp),%eax
    8d10:	8b 54 24 58          	mov    0x58(%esp),%edx
    8d14:	89 90 e4 03 00 00    	mov    %edx,0x3e4(%eax)
	p->tss.esp = esp;
    8d1a:	8b 44 24 18          	mov    0x18(%esp),%eax
    8d1e:	8b 94 24 80 00 00 00 	mov    0x80(%esp),%edx
    8d25:	89 90 e8 03 00 00    	mov    %edx,0x3e8(%eax)
	p->tss.ebp = ebp;
    8d2b:	8b 44 24 18          	mov    0x18(%esp),%eax
    8d2f:	8b 54 24 44          	mov    0x44(%esp),%edx
    8d33:	89 90 ec 03 00 00    	mov    %edx,0x3ec(%eax)
	p->tss.esi = esi;
    8d39:	8b 44 24 18          	mov    0x18(%esp),%eax
    8d3d:	8b 54 24 4c          	mov    0x4c(%esp),%edx
    8d41:	89 90 f0 03 00 00    	mov    %edx,0x3f0(%eax)
	p->tss.edi = edi;
    8d47:	8b 44 24 18          	mov    0x18(%esp),%eax
    8d4b:	8b 54 24 48          	mov    0x48(%esp),%edx
    8d4f:	89 90 f4 03 00 00    	mov    %edx,0x3f4(%eax)
	p->tss.es = es & 0xffff;				// 段寄存器仅16位有效.
    8d55:	8b 44 24 6c          	mov    0x6c(%esp),%eax
    8d59:	0f b7 d0             	movzwl %ax,%edx
    8d5c:	8b 44 24 18          	mov    0x18(%esp),%eax
    8d60:	89 90 f8 03 00 00    	mov    %edx,0x3f8(%eax)
	p->tss.cs = cs & 0xffff;
    8d66:	8b 44 24 78          	mov    0x78(%esp),%eax
    8d6a:	0f b7 d0             	movzwl %ax,%edx
    8d6d:	8b 44 24 18          	mov    0x18(%esp),%eax
    8d71:	89 90 fc 03 00 00    	mov    %edx,0x3fc(%eax)
	p->tss.ss = ss & 0xffff;
    8d77:	8b 84 24 84 00 00 00 	mov    0x84(%esp),%eax
    8d7e:	0f b7 d0             	movzwl %ax,%edx
    8d81:	8b 44 24 18          	mov    0x18(%esp),%eax
    8d85:	89 90 00 04 00 00    	mov    %edx,0x400(%eax)
	p->tss.ds = ds & 0xffff;
    8d8b:	8b 44 24 70          	mov    0x70(%esp),%eax
    8d8f:	0f b7 d0             	movzwl %ax,%edx
    8d92:	8b 44 24 18          	mov    0x18(%esp),%eax
    8d96:	89 90 04 04 00 00    	mov    %edx,0x404(%eax)
	p->tss.fs = fs & 0xffff;
    8d9c:	8b 44 24 68          	mov    0x68(%esp),%eax
    8da0:	0f b7 d0             	movzwl %ax,%edx
    8da3:	8b 44 24 18          	mov    0x18(%esp),%eax
    8da7:	89 90 08 04 00 00    	mov    %edx,0x408(%eax)
	p->tss.gs = gs & 0xffff;
    8dad:	8b 44 24 50          	mov    0x50(%esp),%eax
    8db1:	0f b7 d0             	movzwl %ax,%edx
    8db4:	8b 44 24 18          	mov    0x18(%esp),%eax
    8db8:	89 90 0c 04 00 00    	mov    %edx,0x40c(%eax)
	p->tss.ldt = _LDT(nr);					// 任务局部表描述符的选择符(LDT描述符在GET中).
    8dbe:	8b 44 24 40          	mov    0x40(%esp),%eax
    8dc2:	c1 e0 04             	shl    $0x4,%eax
    8dc5:	83 c0 28             	add    $0x28,%eax
    8dc8:	89 c2                	mov    %eax,%edx
    8dca:	8b 44 24 18          	mov    0x18(%esp),%eax
    8dce:	89 90 10 04 00 00    	mov    %edx,0x410(%eax)
	p->tss.trace_bitmap = 0x80000000;		// (高16位有效).
    8dd4:	8b 44 24 18          	mov    0x18(%esp),%eax
    8dd8:	c7 80 14 04 00 00 00 	movl   $0x80000000,0x414(%eax)
    8ddf:	00 00 80 
	// 如果当前任务使用了协处理器,就保存其上下文.汇编指令clts用于清除控制寄存器CR0中的任务已交换(TS)标志.每当发生任务切换,CPU都会设置该标志.该标志用于管理
	// 数学协处理器:如果该标志置位,那么每个ESC指令都会被捕获(异常7).如果协处理器存在标志MP也同时置位的话,那么WAIT指令也会捕获.因此,如果任务切换发生在一个
	// ESC指令开始执行之后,则协处理器中的内容就可能需要在执行新的ESC指令之前保存起来.捕获处理句柄会保存协处理器的内容并复位TS标志.指令fnsave用于把协处理器的
	// 所有状态保存到目的操作数指定的内存区域中(tss.i387).
	if (last_task_used_math == current)
    8de2:	8b 44 24 04          	mov    0x4(%esp),%eax
    8de6:	c7 c0 8c 3b 03 00    	mov    $0x33b8c,%eax
    8dec:	8b 10                	mov    (%eax),%edx
    8dee:	8b 44 24 04          	mov    0x4(%esp),%eax
    8df2:	c7 c0 80 32 03 00    	mov    $0x33280,%eax
    8df8:	8b 00                	mov    (%eax),%eax
    8dfa:	39 c2                	cmp    %eax,%edx
    8dfc:	75 12                	jne    8e10 <copy_process+0x290>
		__asm__("clts ; fnsave %0 ; frstor %0"::"m" (p->tss.i387));
    8dfe:	8b 44 24 18          	mov    0x18(%esp),%eax
    8e02:	0f 06                	clts   
    8e04:	dd b0 18 04 00 00    	fnsave 0x418(%eax)
    8e0a:	dd a0 18 04 00 00    	frstor 0x418(%eax)
	// 接下来复制进程页表.即在线性地址空间设置新任务代码段和数据段描述符中的基址和限长,并复制页表.如果出错(返回值不是0),则复位任务数组中相应项并
	// 释放为该新任务分配的用于任务结构的内存页.
	if (copy_mem(nr, p)) {					// 返回不为0示出错.
    8e10:	83 ec 08             	sub    $0x8,%esp
    8e13:	ff 74 24 20          	pushl  0x20(%esp)
    8e17:	ff 74 24 4c          	pushl  0x4c(%esp)
    8e1b:	e8 87 fb ff ff       	call   89a7 <copy_mem>
    8e20:	83 c4 10             	add    $0x10,%esp
    8e23:	85 c0                	test   %eax,%eax
    8e25:	74 33                	je     8e5a <copy_process+0x2da>
		task[nr] = NULL;
    8e27:	8b 44 24 04          	mov    0x4(%esp),%eax
    8e2b:	c7 c0 a0 32 03 00    	mov    $0x332a0,%eax
    8e31:	8b 54 24 40          	mov    0x40(%esp),%edx
    8e35:	c7 04 90 00 00 00 00 	movl   $0x0,(%eax,%edx,4)
		free_page((long) p);
    8e3c:	8b 44 24 18          	mov    0x18(%esp),%eax
    8e40:	83 ec 0c             	sub    $0xc,%esp
    8e43:	50                   	push   %eax
    8e44:	8b 5c 24 14          	mov    0x14(%esp),%ebx
    8e48:	e8 22 3c 00 00       	call   ca6f <free_page>
    8e4d:	83 c4 10             	add    $0x10,%esp
		return -EAGAIN;
    8e50:	b8 f5 ff ff ff       	mov    $0xfffffff5,%eax
    8e55:	e9 b2 03 00 00       	jmp    920c <copy_process+0x68c>
	}
	// 如果父进程中有文件是打开的,则将对应文件的打开次数增1.因为这里创建的子进程会与父进程共享这些打开的文件.将当前进程(父进程)的pwd,root和
	// executable引用次数均增1.与上面同样的道理,子进程也引用了这些i节点.
	for (i = 0; i < NR_OPEN; i++)
    8e5a:	c7 44 24 1c 00 00 00 	movl   $0x0,0x1c(%esp)
    8e61:	00 
    8e62:	eb 35                	jmp    8e99 <copy_process+0x319>
		if (f = p->filp[i])
    8e64:	8b 44 24 18          	mov    0x18(%esp),%eax
    8e68:	8b 54 24 1c          	mov    0x1c(%esp),%edx
    8e6c:	81 c2 d0 00 00 00    	add    $0xd0,%edx
    8e72:	8b 44 90 08          	mov    0x8(%eax,%edx,4),%eax
    8e76:	89 44 24 14          	mov    %eax,0x14(%esp)
    8e7a:	83 7c 24 14 00       	cmpl   $0x0,0x14(%esp)
    8e7f:	74 13                	je     8e94 <copy_process+0x314>
			f->f_count++;
    8e81:	8b 44 24 14          	mov    0x14(%esp),%eax
    8e85:	0f b7 40 04          	movzwl 0x4(%eax),%eax
    8e89:	8d 50 01             	lea    0x1(%eax),%edx
    8e8c:	8b 44 24 14          	mov    0x14(%esp),%eax
    8e90:	66 89 50 04          	mov    %dx,0x4(%eax)
	for (i = 0; i < NR_OPEN; i++)
    8e94:	83 44 24 1c 01       	addl   $0x1,0x1c(%esp)
    8e99:	83 7c 24 1c 13       	cmpl   $0x13,0x1c(%esp)
    8e9e:	7e c4                	jle    8e64 <copy_process+0x2e4>
	if (current->pwd)
    8ea0:	8b 44 24 04          	mov    0x4(%esp),%eax
    8ea4:	c7 c0 80 32 03 00    	mov    $0x33280,%eax
    8eaa:	8b 00                	mov    (%eax),%eax
    8eac:	8b 80 34 03 00 00    	mov    0x334(%eax),%eax
    8eb2:	85 c0                	test   %eax,%eax
    8eb4:	74 1d                	je     8ed3 <copy_process+0x353>
		current->pwd->i_count++;
    8eb6:	8b 44 24 04          	mov    0x4(%esp),%eax
    8eba:	c7 c0 80 32 03 00    	mov    $0x33280,%eax
    8ec0:	8b 00                	mov    (%eax),%eax
    8ec2:	8b 80 34 03 00 00    	mov    0x334(%eax),%eax
    8ec8:	0f b7 50 34          	movzwl 0x34(%eax),%edx
    8ecc:	83 c2 01             	add    $0x1,%edx
    8ecf:	66 89 50 34          	mov    %dx,0x34(%eax)
	if (current->root)
    8ed3:	8b 44 24 04          	mov    0x4(%esp),%eax
    8ed7:	c7 c0 80 32 03 00    	mov    $0x33280,%eax
    8edd:	8b 00                	mov    (%eax),%eax
    8edf:	8b 80 38 03 00 00    	mov    0x338(%eax),%eax
    8ee5:	85 c0                	test   %eax,%eax
    8ee7:	74 1d                	je     8f06 <copy_process+0x386>
		current->root->i_count++;
    8ee9:	8b 44 24 04          	mov    0x4(%esp),%eax
    8eed:	c7 c0 80 32 03 00    	mov    $0x33280,%eax
    8ef3:	8b 00                	mov    (%eax),%eax
    8ef5:	8b 80 38 03 00 00    	mov    0x338(%eax),%eax
    8efb:	0f b7 50 34          	movzwl 0x34(%eax),%edx
    8eff:	83 c2 01             	add    $0x1,%edx
    8f02:	66 89 50 34          	mov    %dx,0x34(%eax)
	if (current->executable)
    8f06:	8b 44 24 04          	mov    0x4(%esp),%eax
    8f0a:	c7 c0 80 32 03 00    	mov    $0x33280,%eax
    8f10:	8b 00                	mov    (%eax),%eax
    8f12:	8b 80 3c 03 00 00    	mov    0x33c(%eax),%eax
    8f18:	85 c0                	test   %eax,%eax
    8f1a:	74 1d                	je     8f39 <copy_process+0x3b9>
		current->executable->i_count++;
    8f1c:	8b 44 24 04          	mov    0x4(%esp),%eax
    8f20:	c7 c0 80 32 03 00    	mov    $0x33280,%eax
    8f26:	8b 00                	mov    (%eax),%eax
    8f28:	8b 80 3c 03 00 00    	mov    0x33c(%eax),%eax
    8f2e:	0f b7 50 34          	movzwl 0x34(%eax),%edx
    8f32:	83 c2 01             	add    $0x1,%edx
    8f35:	66 89 50 34          	mov    %dx,0x34(%eax)
	if (current->library)
    8f39:	8b 44 24 04          	mov    0x4(%esp),%eax
    8f3d:	c7 c0 80 32 03 00    	mov    $0x33280,%eax
    8f43:	8b 00                	mov    (%eax),%eax
    8f45:	8b 80 40 03 00 00    	mov    0x340(%eax),%eax
    8f4b:	85 c0                	test   %eax,%eax
    8f4d:	74 1d                	je     8f6c <copy_process+0x3ec>
		current->library->i_count++;
    8f4f:	8b 44 24 04          	mov    0x4(%esp),%eax
    8f53:	c7 c0 80 32 03 00    	mov    $0x33280,%eax
    8f59:	8b 00                	mov    (%eax),%eax
    8f5b:	8b 80 40 03 00 00    	mov    0x340(%eax),%eax
    8f61:	0f b7 50 34          	movzwl 0x34(%eax),%edx
    8f65:	83 c2 01             	add    $0x1,%edx
    8f68:	66 89 50 34          	mov    %dx,0x34(%eax)
	// 设置等于父进程的最新子进程指针.若当前进程确实还有其他子进程,则让比邻老兄进程的最年轻进程指针p_yspter指向新进程.最后把当前进程的最新子进程指针指向这个新进程.
	// 然后把新进程设置成就绪态.最后返回新进程号.
	// 另外,set_tss_desc()和set_ldt_desc()定义在include/asm/system.h文件中."gdt+(nr<<1)+FIRST_TSS_ENTRY"是任务nr的TSS描述符项在全局表中的地址.
	// 因为每个任务占用GDT表中2项,因此上式中要包括'(nr<<1)'.
	// 请注意,在任务切换时,任务寄存器tr会由CPU自动加载.
	set_tss_desc(gdt + (nr << 1) + FIRST_TSS_ENTRY, &(p->tss));
    8f6c:	8b 44 24 18          	mov    0x18(%esp),%eax
    8f70:	05 b0 03 00 00       	add    $0x3b0,%eax
    8f75:	89 c7                	mov    %eax,%edi
    8f77:	8b 44 24 40          	mov    0x40(%esp),%eax
    8f7b:	01 c0                	add    %eax,%eax
    8f7d:	83 c0 04             	add    $0x4,%eax
    8f80:	8d 14 c5 00 00 00 00 	lea    0x0(,%eax,8),%edx
    8f87:	8b 44 24 04          	mov    0x4(%esp),%eax
    8f8b:	c7 c0 b8 5c 00 00    	mov    $0x5cb8,%eax
    8f91:	01 d0                	add    %edx,%eax
    8f93:	89 c5                	mov    %eax,%ebp
    8f95:	8b 44 24 40          	mov    0x40(%esp),%eax
    8f99:	01 c0                	add    %eax,%eax
    8f9b:	83 c0 04             	add    $0x4,%eax
    8f9e:	c1 e0 03             	shl    $0x3,%eax
    8fa1:	8d 50 02             	lea    0x2(%eax),%edx
    8fa4:	8b 44 24 04          	mov    0x4(%esp),%eax
    8fa8:	c7 c0 b8 5c 00 00    	mov    $0x5cb8,%eax
    8fae:	01 d0                	add    %edx,%eax
    8fb0:	89 44 24 08          	mov    %eax,0x8(%esp)
    8fb4:	8b 44 24 40          	mov    0x40(%esp),%eax
    8fb8:	01 c0                	add    %eax,%eax
    8fba:	83 c0 04             	add    $0x4,%eax
    8fbd:	c1 e0 03             	shl    $0x3,%eax
    8fc0:	8d 50 04             	lea    0x4(%eax),%edx
    8fc3:	8b 44 24 04          	mov    0x4(%esp),%eax
    8fc7:	c7 c0 b8 5c 00 00    	mov    $0x5cb8,%eax
    8fcd:	8d 1c 02             	lea    (%edx,%eax,1),%ebx
    8fd0:	8b 44 24 40          	mov    0x40(%esp),%eax
    8fd4:	01 c0                	add    %eax,%eax
    8fd6:	83 c0 04             	add    $0x4,%eax
    8fd9:	c1 e0 03             	shl    $0x3,%eax
    8fdc:	8d 50 05             	lea    0x5(%eax),%edx
    8fdf:	8b 44 24 04          	mov    0x4(%esp),%eax
    8fe3:	c7 c0 b8 5c 00 00    	mov    $0x5cb8,%eax
    8fe9:	8d 0c 02             	lea    (%edx,%eax,1),%ecx
    8fec:	8b 44 24 40          	mov    0x40(%esp),%eax
    8ff0:	01 c0                	add    %eax,%eax
    8ff2:	83 c0 04             	add    $0x4,%eax
    8ff5:	c1 e0 03             	shl    $0x3,%eax
    8ff8:	8d 50 06             	lea    0x6(%eax),%edx
    8ffb:	8b 44 24 04          	mov    0x4(%esp),%eax
    8fff:	c7 c0 b8 5c 00 00    	mov    $0x5cb8,%eax
    9005:	8d 34 02             	lea    (%edx,%eax,1),%esi
    9008:	8b 44 24 40          	mov    0x40(%esp),%eax
    900c:	01 c0                	add    %eax,%eax
    900e:	83 c0 04             	add    $0x4,%eax
    9011:	c1 e0 03             	shl    $0x3,%eax
    9014:	8d 50 07             	lea    0x7(%eax),%edx
    9017:	8b 44 24 04          	mov    0x4(%esp),%eax
    901b:	c7 c0 b8 5c 00 00    	mov    $0x5cb8,%eax
    9021:	01 d0                	add    %edx,%eax
    9023:	89 44 24 0c          	mov    %eax,0xc(%esp)
    9027:	89 da                	mov    %ebx,%edx
    9029:	89 f8                	mov    %edi,%eax
    902b:	89 f3                	mov    %esi,%ebx
    902d:	89 ee                	mov    %ebp,%esi
    902f:	8b 7c 24 0c          	mov    0xc(%esp),%edi
    9033:	8b 6c 24 08          	mov    0x8(%esp),%ebp
    9037:	66 c7 06 68 00       	movw   $0x68,(%esi)
    903c:	66 89 45 00          	mov    %ax,0x0(%ebp)
    9040:	c1 c8 10             	ror    $0x10,%eax
    9043:	88 02                	mov    %al,(%edx)
    9045:	c6 01 89             	movb   $0x89,(%ecx)
    9048:	c6 03 00             	movb   $0x0,(%ebx)
    904b:	88 27                	mov    %ah,(%edi)
    904d:	c1 c8 10             	ror    $0x10,%eax
	set_ldt_desc(gdt + (nr << 1) + FIRST_LDT_ENTRY, &(p->ldt));
    9050:	8b 44 24 18          	mov    0x18(%esp),%eax
    9054:	05 98 03 00 00       	add    $0x398,%eax
    9059:	89 c7                	mov    %eax,%edi
    905b:	8b 44 24 40          	mov    0x40(%esp),%eax
    905f:	01 c0                	add    %eax,%eax
    9061:	83 c0 05             	add    $0x5,%eax
    9064:	8d 14 c5 00 00 00 00 	lea    0x0(,%eax,8),%edx
    906b:	8b 44 24 04          	mov    0x4(%esp),%eax
    906f:	c7 c0 b8 5c 00 00    	mov    $0x5cb8,%eax
    9075:	01 d0                	add    %edx,%eax
    9077:	89 c5                	mov    %eax,%ebp
    9079:	8b 44 24 40          	mov    0x40(%esp),%eax
    907d:	01 c0                	add    %eax,%eax
    907f:	83 c0 05             	add    $0x5,%eax
    9082:	c1 e0 03             	shl    $0x3,%eax
    9085:	8d 50 02             	lea    0x2(%eax),%edx
    9088:	8b 44 24 04          	mov    0x4(%esp),%eax
    908c:	c7 c0 b8 5c 00 00    	mov    $0x5cb8,%eax
    9092:	01 d0                	add    %edx,%eax
    9094:	89 44 24 08          	mov    %eax,0x8(%esp)
    9098:	8b 44 24 40          	mov    0x40(%esp),%eax
    909c:	01 c0                	add    %eax,%eax
    909e:	83 c0 05             	add    $0x5,%eax
    90a1:	c1 e0 03             	shl    $0x3,%eax
    90a4:	8d 50 04             	lea    0x4(%eax),%edx
    90a7:	8b 44 24 04          	mov    0x4(%esp),%eax
    90ab:	c7 c0 b8 5c 00 00    	mov    $0x5cb8,%eax
    90b1:	8d 1c 02             	lea    (%edx,%eax,1),%ebx
    90b4:	8b 44 24 40          	mov    0x40(%esp),%eax
    90b8:	01 c0                	add    %eax,%eax
    90ba:	83 c0 05             	add    $0x5,%eax
    90bd:	c1 e0 03             	shl    $0x3,%eax
    90c0:	8d 50 05             	lea    0x5(%eax),%edx
    90c3:	8b 44 24 04          	mov    0x4(%esp),%eax
    90c7:	c7 c0 b8 5c 00 00    	mov    $0x5cb8,%eax
    90cd:	8d 0c 02             	lea    (%edx,%eax,1),%ecx
    90d0:	8b 44 24 40          	mov    0x40(%esp),%eax
    90d4:	01 c0                	add    %eax,%eax
    90d6:	83 c0 05             	add    $0x5,%eax
    90d9:	c1 e0 03             	shl    $0x3,%eax
    90dc:	8d 50 06             	lea    0x6(%eax),%edx
    90df:	8b 44 24 04          	mov    0x4(%esp),%eax
    90e3:	c7 c0 b8 5c 00 00    	mov    $0x5cb8,%eax
    90e9:	8d 34 02             	lea    (%edx,%eax,1),%esi
    90ec:	8b 44 24 40          	mov    0x40(%esp),%eax
    90f0:	01 c0                	add    %eax,%eax
    90f2:	83 c0 05             	add    $0x5,%eax
    90f5:	c1 e0 03             	shl    $0x3,%eax
    90f8:	8d 50 07             	lea    0x7(%eax),%edx
    90fb:	8b 44 24 04          	mov    0x4(%esp),%eax
    90ff:	c7 c0 b8 5c 00 00    	mov    $0x5cb8,%eax
    9105:	01 d0                	add    %edx,%eax
    9107:	89 44 24 0c          	mov    %eax,0xc(%esp)
    910b:	89 da                	mov    %ebx,%edx
    910d:	89 f8                	mov    %edi,%eax
    910f:	89 f3                	mov    %esi,%ebx
    9111:	89 ee                	mov    %ebp,%esi
    9113:	8b 7c 24 0c          	mov    0xc(%esp),%edi
    9117:	8b 6c 24 08          	mov    0x8(%esp),%ebp
    911b:	66 c7 06 68 00       	movw   $0x68,(%esi)
    9120:	66 89 45 00          	mov    %ax,0x0(%ebp)
    9124:	c1 c8 10             	ror    $0x10,%eax
    9127:	88 02                	mov    %al,(%edx)
    9129:	c6 01 82             	movb   $0x82,(%ecx)
    912c:	c6 03 00             	movb   $0x0,(%ebx)
    912f:	88 27                	mov    %ah,(%edi)
    9131:	c1 c8 10             	ror    $0x10,%eax
	p->p_pptr = current;				// 设置新进程的父进程指针.
    9134:	8b 44 24 04          	mov    0x4(%esp),%eax
    9138:	c7 c0 80 32 03 00    	mov    $0x33280,%eax
    913e:	8b 10                	mov    (%eax),%edx
    9140:	8b 44 24 18          	mov    0x18(%esp),%eax
    9144:	89 90 bc 02 00 00    	mov    %edx,0x2bc(%eax)
	p->p_cptr = 0;						// 复位新进程的最新子进程指针.
    914a:	8b 44 24 18          	mov    0x18(%esp),%eax
    914e:	c7 80 c0 02 00 00 00 	movl   $0x0,0x2c0(%eax)
    9155:	00 00 00 
	p->p_ysptr = 0;						// 复位新进程的比邻年轻兄弟进程指针.
    9158:	8b 44 24 18          	mov    0x18(%esp),%eax
    915c:	c7 80 c4 02 00 00 00 	movl   $0x0,0x2c4(%eax)
    9163:	00 00 00 
	p->p_osptr = current->p_cptr;		// 设置新进程的比邻老兄兄弟进程指针.
    9166:	8b 44 24 04          	mov    0x4(%esp),%eax
    916a:	c7 c0 80 32 03 00    	mov    $0x33280,%eax
    9170:	8b 00                	mov    (%eax),%eax
    9172:	8b 90 c0 02 00 00    	mov    0x2c0(%eax),%edx
    9178:	8b 44 24 18          	mov    0x18(%esp),%eax
    917c:	89 90 c8 02 00 00    	mov    %edx,0x2c8(%eax)
	if (p->p_osptr)						// 若新进程有老兄兄弟进程,则让其年轻进程兄弟指针指向新进程
    9182:	8b 44 24 18          	mov    0x18(%esp),%eax
    9186:	8b 80 c8 02 00 00    	mov    0x2c8(%eax),%eax
    918c:	85 c0                	test   %eax,%eax
    918e:	74 14                	je     91a4 <copy_process+0x624>
		p->p_osptr->p_ysptr = p;
    9190:	8b 44 24 18          	mov    0x18(%esp),%eax
    9194:	8b 80 c8 02 00 00    	mov    0x2c8(%eax),%eax
    919a:	8b 54 24 18          	mov    0x18(%esp),%edx
    919e:	89 90 c4 02 00 00    	mov    %edx,0x2c4(%eax)
	current->p_cptr = p;				// 让当前进程最新子进程指针指向新进程.
    91a4:	8b 44 24 04          	mov    0x4(%esp),%eax
    91a8:	c7 c0 80 32 03 00    	mov    $0x33280,%eax
    91ae:	8b 00                	mov    (%eax),%eax
    91b0:	8b 54 24 18          	mov    0x18(%esp),%edx
    91b4:	89 90 c0 02 00 00    	mov    %edx,0x2c0(%eax)
	p->state = TASK_RUNNING;			/* do this last, just in case */        /* 设置进程状态为待运行状态栏 */
    91ba:	8b 44 24 18          	mov    0x18(%esp),%eax
    91be:	c7 00 00 00 00 00    	movl   $0x0,(%eax)
	Log(LOG_INFO_TYPE, "<<<<< fork new process current_pid = %d, child_pid = %d, nr = %d >>>>>\n", current->pid, p->pid, nr);
    91c4:	8b 44 24 18          	mov    0x18(%esp),%eax
    91c8:	8b 90 2c 02 00 00    	mov    0x22c(%eax),%edx
    91ce:	8b 44 24 04          	mov    0x4(%esp),%eax
    91d2:	c7 c0 80 32 03 00    	mov    $0x33280,%eax
    91d8:	8b 00                	mov    (%eax),%eax
    91da:	8b 80 2c 02 00 00    	mov    0x22c(%eax),%eax
    91e0:	83 ec 0c             	sub    $0xc,%esp
    91e3:	ff 74 24 4c          	pushl  0x4c(%esp)
    91e7:	52                   	push   %edx
    91e8:	50                   	push   %eax
    91e9:	8b 44 24 1c          	mov    0x1c(%esp),%eax
    91ed:	8d 80 94 44 ff ff    	lea    -0xbb6c(%eax),%eax
    91f3:	50                   	push   %eax
    91f4:	6a 00                	push   $0x0
    91f6:	8b 5c 24 24          	mov    0x24(%esp),%ebx
    91fa:	e8 a0 c9 01 00       	call   25b9f <Log>
    91ff:	83 c4 20             	add    $0x20,%esp
	return last_pid;        			// 返回新进程号
    9202:	8b 44 24 04          	mov    0x4(%esp),%eax
    9206:	8b 80 c8 1e 00 00    	mov    0x1ec8(%eax),%eax
}
    920c:	83 c4 2c             	add    $0x2c,%esp
    920f:	5b                   	pop    %ebx
    9210:	5e                   	pop    %esi
    9211:	5f                   	pop    %edi
    9212:	5d                   	pop    %ebp
    9213:	c3                   	ret    

00009214 <find_empty_process>:

// 为新进程取得不重复的进程号last_pid.函数返回在任务数组中的任务号(数组项).
int find_empty_process(void)
{
    9214:	83 ec 10             	sub    $0x10,%esp
    9217:	e8 d6 da ff ff       	call   6cf2 <__x86.get_pc_thunk.ax>
    921c:	05 e4 8d 02 00       	add    $0x28de4,%eax
    9221:	eb 01                	jmp    9224 <find_empty_process+0x10>
	int i;

	// 首先获取新的进程号.如果last_pid增1后超出进程号的正数表示范围,则重新从1开始使用pid号.然后在任务数组中搜索刚设置的pid号是
	// 否已经被任何任务使用.如果是则跳转到函数开始处理重新获得一个pid号.接着在任务数组中为新任务寻找一个空闲项,并返回项号.last_pid是一
	// 个全局变量,不用返回.如果此时任务数组中64个项已经被全部占用,则返回出错码.
	repeat:
    9223:	90                   	nop
		if ((++last_pid) < 0) last_pid = 1;
    9224:	8b 90 c8 1e 00 00    	mov    0x1ec8(%eax),%edx
    922a:	83 c2 01             	add    $0x1,%edx
    922d:	89 90 c8 1e 00 00    	mov    %edx,0x1ec8(%eax)
    9233:	8b 90 c8 1e 00 00    	mov    0x1ec8(%eax),%edx
    9239:	85 d2                	test   %edx,%edx
    923b:	79 0a                	jns    9247 <find_empty_process+0x33>
    923d:	c7 80 c8 1e 00 00 01 	movl   $0x1,0x1ec8(%eax)
    9244:	00 00 00 
		for(i = 0 ; i < NR_TASKS ; i++)
    9247:	c7 44 24 0c 00 00 00 	movl   $0x0,0xc(%esp)
    924e:	00 
    924f:	eb 50                	jmp    92a1 <find_empty_process+0x8d>
			if (task[i] && ((task[i]->pid == last_pid) ||
    9251:	c7 c2 a0 32 03 00    	mov    $0x332a0,%edx
    9257:	8b 4c 24 0c          	mov    0xc(%esp),%ecx
    925b:	8b 14 8a             	mov    (%edx,%ecx,4),%edx
    925e:	85 d2                	test   %edx,%edx
    9260:	74 3a                	je     929c <find_empty_process+0x88>
    9262:	c7 c2 a0 32 03 00    	mov    $0x332a0,%edx
    9268:	8b 4c 24 0c          	mov    0xc(%esp),%ecx
    926c:	8b 14 8a             	mov    (%edx,%ecx,4),%edx
    926f:	8b 8a 2c 02 00 00    	mov    0x22c(%edx),%ecx
    9275:	8b 90 c8 1e 00 00    	mov    0x1ec8(%eax),%edx
    927b:	39 d1                	cmp    %edx,%ecx
    927d:	74 a4                	je     9223 <find_empty_process+0xf>
				        (task[i]->pgrp == last_pid)))
    927f:	c7 c2 a0 32 03 00    	mov    $0x332a0,%edx
    9285:	8b 4c 24 0c          	mov    0xc(%esp),%ecx
    9289:	8b 14 8a             	mov    (%edx,%ecx,4),%edx
    928c:	8b 8a 30 02 00 00    	mov    0x230(%edx),%ecx
    9292:	8b 90 c8 1e 00 00    	mov    0x1ec8(%eax),%edx
			if (task[i] && ((task[i]->pid == last_pid) ||
    9298:	39 d1                	cmp    %edx,%ecx
    929a:	74 87                	je     9223 <find_empty_process+0xf>
		for(i = 0 ; i < NR_TASKS ; i++)
    929c:	83 44 24 0c 01       	addl   $0x1,0xc(%esp)
    92a1:	83 7c 24 0c 3f       	cmpl   $0x3f,0xc(%esp)
    92a6:	7e a9                	jle    9251 <find_empty_process+0x3d>
				goto repeat;
	for(i = 1 ; i < NR_TASKS ; i++)
    92a8:	c7 44 24 0c 01 00 00 	movl   $0x1,0xc(%esp)
    92af:	00 
    92b0:	eb 1c                	jmp    92ce <find_empty_process+0xba>
		if (!task[i])
    92b2:	c7 c2 a0 32 03 00    	mov    $0x332a0,%edx
    92b8:	8b 4c 24 0c          	mov    0xc(%esp),%ecx
    92bc:	8b 14 8a             	mov    (%edx,%ecx,4),%edx
    92bf:	85 d2                	test   %edx,%edx
    92c1:	75 06                	jne    92c9 <find_empty_process+0xb5>
			return i;
    92c3:	8b 44 24 0c          	mov    0xc(%esp),%eax
    92c7:	eb 11                	jmp    92da <find_empty_process+0xc6>
	for(i = 1 ; i < NR_TASKS ; i++)
    92c9:	83 44 24 0c 01       	addl   $0x1,0xc(%esp)
    92ce:	83 7c 24 0c 3f       	cmpl   $0x3f,0xc(%esp)
    92d3:	7e dd                	jle    92b2 <find_empty_process+0x9e>
	return -EAGAIN;
    92d5:	b8 f5 ff ff ff       	mov    $0xfffffff5,%eax
}
    92da:	83 c4 10             	add    $0x10,%esp
    92dd:	c3                   	ret    

000092de <panic>:
// 如果当前进程是任务0的话,还说明是交换任务出错,并且还没有运行文件系统同步函数.
// 函数名前的关键字volatile用于告诉编译器gcc该函数不会返回.这样可让gcc产生更好一些的代码,更重要的是使用这个关键字
// 以避免产生某些(未初始化变量的)假警告信息.
// 等同于现在gcc的函数属性说明:void panic(const char *s) __attribute__((noreturn));
void panic(const char * s)
{
    92de:	53                   	push   %ebx
    92df:	83 ec 08             	sub    $0x8,%esp
    92e2:	e8 13 da ff ff       	call   6cfa <__x86.get_pc_thunk.bx>
    92e7:	81 c3 19 8d 02 00    	add    $0x28d19,%ebx
	printk("Kernel panic: %s\n\r", s);
    92ed:	83 ec 08             	sub    $0x8,%esp
    92f0:	ff 74 24 18          	pushl  0x18(%esp)
    92f4:	8d 83 dc 44 ff ff    	lea    -0xbb24(%ebx),%eax
    92fa:	50                   	push   %eax
    92fb:	e8 32 00 00 00       	call   9332 <printk>
    9300:	83 c4 10             	add    $0x10,%esp
	if (current == task[0])
    9303:	c7 c0 a0 32 03 00    	mov    $0x332a0,%eax
    9309:	8b 10                	mov    (%eax),%edx
    930b:	c7 c0 80 32 03 00    	mov    $0x33280,%eax
    9311:	8b 00                	mov    (%eax),%eax
    9313:	39 c2                	cmp    %eax,%edx
    9315:	75 14                	jne    932b <panic+0x4d>
		printk("In swapper task - not syncing\n\r");
    9317:	83 ec 0c             	sub    $0xc,%esp
    931a:	8d 83 f0 44 ff ff    	lea    -0xbb10(%ebx),%eax
    9320:	50                   	push   %eax
    9321:	e8 0c 00 00 00       	call   9332 <printk>
    9326:	83 c4 10             	add    $0x10,%esp
    9329:	eb 05                	jmp    9330 <panic+0x52>
	else
		sys_sync();
    932b:	e8 69 6e 00 00       	call   10199 <sys_sync>
	for(;;);
    9330:	eb fe                	jmp    9330 <panic+0x52>

00009332 <printk>:
// 函数vsprintf()定义在linux/kernel/vsprintf.c中
extern int vsprintf(char * buf, const char * fmt, va_list args);

// 内核使用的显示函数.
int printk(const char *fmt, ...)
{
    9332:	53                   	push   %ebx
    9333:	83 ec 18             	sub    $0x18,%esp
    9336:	e8 bf d9 ff ff       	call   6cfa <__x86.get_pc_thunk.bx>
    933b:	81 c3 c5 8c 02 00    	add    $0x28cc5,%ebx
	va_list args;							// va_list实际上是一个字符指针类型.
	int i;

	// 运行参数处理开始函数.然后使用格式串fmt将参数列表args输出到buf中.返回值i等于输出字符串的长度.再运行参数处理结束函数.最后调用控制台显示
	// 函数并返回显示字符数.
	va_start(args, fmt);
    9341:	8d 44 24 24          	lea    0x24(%esp),%eax
    9345:	89 44 24 0c          	mov    %eax,0xc(%esp)
	i = vsprintf(buf, fmt, args);
    9349:	8b 44 24 20          	mov    0x20(%esp),%eax
    934d:	83 ec 04             	sub    $0x4,%esp
    9350:	ff 74 24 10          	pushl  0x10(%esp)
    9354:	50                   	push   %eax
    9355:	8d 83 e0 1e 00 00    	lea    0x1ee0(%ebx),%eax
    935b:	50                   	push   %eax
    935c:	e8 34 03 00 00       	call   9695 <vsprintf>
    9361:	83 c4 10             	add    $0x10,%esp
    9364:	89 44 24 08          	mov    %eax,0x8(%esp)
	va_end(args);
	console_print(buf);						// chr_drv/console.c
    9368:	83 ec 0c             	sub    $0xc,%esp
    936b:	8d 83 e0 1e 00 00    	lea    0x1ee0(%ebx),%eax
    9371:	50                   	push   %eax
    9372:	e8 bf 6d 01 00       	call   20136 <console_print>
    9377:	83 c4 10             	add    $0x10,%esp
	return i;
    937a:	8b 44 24 08          	mov    0x8(%esp),%eax
}
    937e:	83 c4 18             	add    $0x18,%esp
    9381:	5b                   	pop    %ebx
    9382:	c3                   	ret    

00009383 <strlen>:
// 计算字符串长度.
// 参数:s - 字符串
// %0 - ecx(__res),%1 - edi(字符串指针s),%2 - eax(0),%3 - ecx(0xffffffff).
// 返回:返回字符串长度.
static inline int strlen(const char * s)
{
    9383:	57                   	push   %edi
    9384:	e8 69 d9 ff ff       	call   6cf2 <__x86.get_pc_thunk.ax>
    9389:	05 77 8c 02 00       	add    $0x28c77,%eax
register int __res __asm__("cx");       					// __res是寄存器变量(ecx).
__asm__(
    938e:	8b 54 24 08          	mov    0x8(%esp),%edx
    9392:	b8 00 00 00 00       	mov    $0x0,%eax
    9397:	b9 ff ff ff ff       	mov    $0xffffffff,%ecx
    939c:	89 d7                	mov    %edx,%edi
    939e:	fc                   	cld    
    939f:	f2 ae                	repnz scas %es:(%edi),%al
    93a1:	f7 d1                	not    %ecx
    93a3:	49                   	dec    %ecx
	"repne\n\t"												// al(0)与字符串中字符es:[edi比较,
	"scasb\n\t"												// 若不相等就一直比较.
	"notl %0\n\t"											// ecx取反.
	"decl %0"												// ecx--,得字符串的长度值.
	:"=c" (__res):"D" (s), "a" (0), "0" (0xffffffff));
return __res;												// 返回字符串长度值.
    93a4:	89 c8                	mov    %ecx,%eax
}
    93a6:	5f                   	pop    %edi
    93a7:	c3                   	ret    

000093a8 <skip_atoi>:
/* 我们使用下面的定义,这样我们就可以不使用ctype库了 */
#define is_digit(c)	((c) >= '0' && (c) <= '9')	// 判断字符c是否为数字字符.

// 该函数将字符数字串转换成整数.输入是数字串指针的指针,返回是结果数值.另外指针将前移.
static int skip_atoi(const char **s)
{
    93a8:	53                   	push   %ebx
    93a9:	83 ec 10             	sub    $0x10,%esp
    93ac:	e8 41 d9 ff ff       	call   6cf2 <__x86.get_pc_thunk.ax>
    93b1:	05 4f 8c 02 00       	add    $0x28c4f,%eax
	int i = 0;
    93b6:	c7 44 24 0c 00 00 00 	movl   $0x0,0xc(%esp)
    93bd:	00 

	while (is_digit(**s))
    93be:	eb 2d                	jmp    93ed <skip_atoi+0x45>
		i = i*10 + *((*s)++) - '0';
    93c0:	8b 54 24 0c          	mov    0xc(%esp),%edx
    93c4:	89 d0                	mov    %edx,%eax
    93c6:	c1 e0 02             	shl    $0x2,%eax
    93c9:	01 d0                	add    %edx,%eax
    93cb:	01 c0                	add    %eax,%eax
    93cd:	89 c3                	mov    %eax,%ebx
    93cf:	8b 44 24 18          	mov    0x18(%esp),%eax
    93d3:	8b 00                	mov    (%eax),%eax
    93d5:	8d 48 01             	lea    0x1(%eax),%ecx
    93d8:	8b 54 24 18          	mov    0x18(%esp),%edx
    93dc:	89 0a                	mov    %ecx,(%edx)
    93de:	0f b6 00             	movzbl (%eax),%eax
    93e1:	0f be c0             	movsbl %al,%eax
    93e4:	01 d8                	add    %ebx,%eax
    93e6:	83 e8 30             	sub    $0x30,%eax
    93e9:	89 44 24 0c          	mov    %eax,0xc(%esp)
	while (is_digit(**s))
    93ed:	8b 44 24 18          	mov    0x18(%esp),%eax
    93f1:	8b 00                	mov    (%eax),%eax
    93f3:	0f b6 00             	movzbl (%eax),%eax
    93f6:	3c 2f                	cmp    $0x2f,%al
    93f8:	7e 0d                	jle    9407 <skip_atoi+0x5f>
    93fa:	8b 44 24 18          	mov    0x18(%esp),%eax
    93fe:	8b 00                	mov    (%eax),%eax
    9400:	0f b6 00             	movzbl (%eax),%eax
    9403:	3c 39                	cmp    $0x39,%al
    9405:	7e b9                	jle    93c0 <skip_atoi+0x18>
	return i;
    9407:	8b 44 24 0c          	mov    0xc(%esp),%eax
}
    940b:	83 c4 10             	add    $0x10,%esp
    940e:	5b                   	pop    %ebx
    940f:	c3                   	ret    

00009410 <number>:
// 将整数转换为指定进制的字符串.
// 输入: num-整数; base-进制; size-字符串长度;precision-数字长度(精度);type-类型选项.
// 输出: 数字转换成字符串后指向该字符串末端后面的指针.
static char * number(char * str, int num, int base, int size, int precision
	,int type)
{
    9410:	83 ec 40             	sub    $0x40,%esp
    9413:	e8 da d8 ff ff       	call   6cf2 <__x86.get_pc_thunk.ax>
    9418:	05 e8 8b 02 00       	add    $0x28be8,%eax
	char c,sign,tmp[36];
	const char *digits="0123456789ABCDEFGHIJKLMNOPQRSTUVWXYZ";
    941d:	8d 90 10 45 ff ff    	lea    -0xbaf0(%eax),%edx
    9423:	89 54 24 38          	mov    %edx,0x38(%esp)
	int i;

	// 如果类型type指出用小写字母,则定义小写字母集.
	// 如果类型指出要左调整(靠左边界),则屏蔽类型中的填零标志.
	// 如果进制基数小于2或大于36,则退出处理,即本程序只能处理基数在2-36之间的数.
	if (type & SMALL) digits = "0123456789abcdefghijklmnopqrstuvwxyz";
    9427:	8b 54 24 58          	mov    0x58(%esp),%edx
    942b:	83 e2 40             	and    $0x40,%edx
    942e:	85 d2                	test   %edx,%edx
    9430:	74 0a                	je     943c <number+0x2c>
    9432:	8d 80 38 45 ff ff    	lea    -0xbac8(%eax),%eax
    9438:	89 44 24 38          	mov    %eax,0x38(%esp)
	if (type & LEFT) type &= ~ZEROPAD;
    943c:	8b 44 24 58          	mov    0x58(%esp),%eax
    9440:	83 e0 10             	and    $0x10,%eax
    9443:	85 c0                	test   %eax,%eax
    9445:	74 05                	je     944c <number+0x3c>
    9447:	83 64 24 58 fe       	andl   $0xfffffffe,0x58(%esp)
	if (base < 2 || base > 36)
    944c:	83 7c 24 4c 01       	cmpl   $0x1,0x4c(%esp)
    9451:	7e 07                	jle    945a <number+0x4a>
    9453:	83 7c 24 4c 24       	cmpl   $0x24,0x4c(%esp)
    9458:	7e 0a                	jle    9464 <number+0x54>
		return 0;
    945a:	b8 00 00 00 00       	mov    $0x0,%eax
    945f:	e9 2d 02 00 00       	jmp    9691 <number+0x281>
	// 如果类型指出要填零,则置字符变量c='0',否则c等于空格字符.
	// 如果类型指出是带符号数并且数值num小于0,则置符号变量sign=负号,并使num取绝对值.
	// 否则如果类型指出是加号,则置sign=加号,否则若类型带空格标志则sign=空格,否则置0.
	c = (type & ZEROPAD) ? '0' : ' ' ;
    9464:	8b 44 24 58          	mov    0x58(%esp),%eax
    9468:	83 e0 01             	and    $0x1,%eax
    946b:	85 c0                	test   %eax,%eax
    946d:	74 07                	je     9476 <number+0x66>
    946f:	b8 30 00 00 00       	mov    $0x30,%eax
    9474:	eb 05                	jmp    947b <number+0x6b>
    9476:	b8 20 00 00 00       	mov    $0x20,%eax
    947b:	88 44 24 33          	mov    %al,0x33(%esp)
	if (type & SIGN && num < 0) {
    947f:	8b 44 24 58          	mov    0x58(%esp),%eax
    9483:	83 e0 02             	and    $0x2,%eax
    9486:	85 c0                	test   %eax,%eax
    9488:	74 12                	je     949c <number+0x8c>
    948a:	83 7c 24 48 00       	cmpl   $0x0,0x48(%esp)
    948f:	79 0b                	jns    949c <number+0x8c>
		sign = '-';
    9491:	c6 44 24 3f 2d       	movb   $0x2d,0x3f(%esp)
		num = -num;
    9496:	f7 5c 24 48          	negl   0x48(%esp)
    949a:	eb 20                	jmp    94bc <number+0xac>
	} else
		sign = (type & PLUS) ? '+' : ((type & SPACE) ? ' ' : 0);
    949c:	8b 44 24 58          	mov    0x58(%esp),%eax
    94a0:	83 e0 04             	and    $0x4,%eax
    94a3:	85 c0                	test   %eax,%eax
    94a5:	75 0c                	jne    94b3 <number+0xa3>
    94a7:	8b 44 24 58          	mov    0x58(%esp),%eax
    94ab:	c1 e0 02             	shl    $0x2,%eax
    94ae:	83 e0 20             	and    $0x20,%eax
    94b1:	eb 05                	jmp    94b8 <number+0xa8>
    94b3:	b8 2b 00 00 00       	mov    $0x2b,%eax
    94b8:	88 44 24 3f          	mov    %al,0x3f(%esp)
	// 若带符号,则宽度值减1.若类型指出是特殊转换,则对十六进制宽度再减少2位(用于0x),对于八进制宽度减1(用于八进制转换结果前放一个零).
	if (sign) size--;
    94bc:	80 7c 24 3f 00       	cmpb   $0x0,0x3f(%esp)
    94c1:	74 05                	je     94c8 <number+0xb8>
    94c3:	83 6c 24 50 01       	subl   $0x1,0x50(%esp)
	if (type & SPECIAL)
    94c8:	8b 44 24 58          	mov    0x58(%esp),%eax
    94cc:	83 e0 20             	and    $0x20,%eax
    94cf:	85 c0                	test   %eax,%eax
    94d1:	74 1a                	je     94ed <number+0xdd>
		if (base == 16) size -= 2;
    94d3:	83 7c 24 4c 10       	cmpl   $0x10,0x4c(%esp)
    94d8:	75 07                	jne    94e1 <number+0xd1>
    94da:	83 6c 24 50 02       	subl   $0x2,0x50(%esp)
    94df:	eb 0c                	jmp    94ed <number+0xdd>
		else if (base == 8) size--;
    94e1:	83 7c 24 4c 08       	cmpl   $0x8,0x4c(%esp)
    94e6:	75 05                	jne    94ed <number+0xdd>
    94e8:	83 6c 24 50 01       	subl   $0x1,0x50(%esp)
	// 如果数值num为0,则临时字符串='0';否则根据给定的基数将数值num转换成字符形式.
	i = 0;
    94ed:	c7 44 24 34 00 00 00 	movl   $0x0,0x34(%esp)
    94f4:	00 
	if (num == 0)
    94f5:	83 7c 24 48 00       	cmpl   $0x0,0x48(%esp)
    94fa:	75 48                	jne    9544 <number+0x134>
		tmp[i++] = '0';
    94fc:	8b 44 24 34          	mov    0x34(%esp),%eax
    9500:	8d 50 01             	lea    0x1(%eax),%edx
    9503:	89 54 24 34          	mov    %edx,0x34(%esp)
    9507:	c6 44 04 08 30       	movb   $0x30,0x8(%esp,%eax,1)
    950c:	eb 3d                	jmp    954b <number+0x13b>
	else while (num != 0)
		tmp[i++] = digits[do_div(num, base)];
    950e:	8b 44 24 48          	mov    0x48(%esp),%eax
    9512:	ba 00 00 00 00       	mov    $0x0,%edx
    9517:	8b 4c 24 4c          	mov    0x4c(%esp),%ecx
    951b:	f7 f1                	div    %ecx
    951d:	89 44 24 48          	mov    %eax,0x48(%esp)
    9521:	89 54 24 2c          	mov    %edx,0x2c(%esp)
    9525:	8b 44 24 2c          	mov    0x2c(%esp),%eax
    9529:	89 c2                	mov    %eax,%edx
    952b:	8b 44 24 38          	mov    0x38(%esp),%eax
    952f:	8d 0c 02             	lea    (%edx,%eax,1),%ecx
    9532:	8b 44 24 34          	mov    0x34(%esp),%eax
    9536:	8d 50 01             	lea    0x1(%eax),%edx
    9539:	89 54 24 34          	mov    %edx,0x34(%esp)
    953d:	0f b6 11             	movzbl (%ecx),%edx
    9540:	88 54 04 08          	mov    %dl,0x8(%esp,%eax,1)
	else while (num != 0)
    9544:	83 7c 24 48 00       	cmpl   $0x0,0x48(%esp)
    9549:	75 c3                	jne    950e <number+0xfe>
	// 若数值字符个数大于精度值,则精度值扩展为数字个数值.
	// 宽度值size减去用于存放数值字符的个数.
	if (i > precision) precision = i;
    954b:	8b 44 24 34          	mov    0x34(%esp),%eax
    954f:	3b 44 24 54          	cmp    0x54(%esp),%eax
    9553:	7e 08                	jle    955d <number+0x14d>
    9555:	8b 44 24 34          	mov    0x34(%esp),%eax
    9559:	89 44 24 54          	mov    %eax,0x54(%esp)
	size -= precision;
    955d:	8b 44 24 54          	mov    0x54(%esp),%eax
    9561:	29 44 24 50          	sub    %eax,0x50(%esp)
	// 从这里真正开始形成所需要的转换结果,并暂时放在字符串str中.
	// 若类型中没有填零(ZEROPAD)和左靠齐(左调整)标志,则在str中首先填放剩余宽度值指出的空格数.若需带符号位,则存入符号.
	if (!(type & (ZEROPAD + LEFT)))
    9565:	8b 44 24 58          	mov    0x58(%esp),%eax
    9569:	83 e0 11             	and    $0x11,%eax
    956c:	85 c0                	test   %eax,%eax
    956e:	75 1f                	jne    958f <number+0x17f>
		while(size-- > 0)
    9570:	eb 0e                	jmp    9580 <number+0x170>
			*str++ = ' ';
    9572:	8b 44 24 44          	mov    0x44(%esp),%eax
    9576:	8d 50 01             	lea    0x1(%eax),%edx
    9579:	89 54 24 44          	mov    %edx,0x44(%esp)
    957d:	c6 00 20             	movb   $0x20,(%eax)
		while(size-- > 0)
    9580:	8b 44 24 50          	mov    0x50(%esp),%eax
    9584:	8d 50 ff             	lea    -0x1(%eax),%edx
    9587:	89 54 24 50          	mov    %edx,0x50(%esp)
    958b:	85 c0                	test   %eax,%eax
    958d:	7f e3                	jg     9572 <number+0x162>
	if (sign)
    958f:	80 7c 24 3f 00       	cmpb   $0x0,0x3f(%esp)
    9594:	74 12                	je     95a8 <number+0x198>
		*str++ = sign;
    9596:	8b 44 24 44          	mov    0x44(%esp),%eax
    959a:	8d 50 01             	lea    0x1(%eax),%edx
    959d:	89 54 24 44          	mov    %edx,0x44(%esp)
    95a1:	0f b6 54 24 3f       	movzbl 0x3f(%esp),%edx
    95a6:	88 10                	mov    %dl,(%eax)
	// 若类型指出是特殊转换,则对于八进制转换结果头一位放置一个'0';而对于十六进制则存放'0x'.
	if (type & SPECIAL)
    95a8:	8b 44 24 58          	mov    0x58(%esp),%eax
    95ac:	83 e0 20             	and    $0x20,%eax
    95af:	85 c0                	test   %eax,%eax
    95b1:	74 41                	je     95f4 <number+0x1e4>
		if (base == 8)
    95b3:	83 7c 24 4c 08       	cmpl   $0x8,0x4c(%esp)
    95b8:	75 10                	jne    95ca <number+0x1ba>
			*str++ = '0';
    95ba:	8b 44 24 44          	mov    0x44(%esp),%eax
    95be:	8d 50 01             	lea    0x1(%eax),%edx
    95c1:	89 54 24 44          	mov    %edx,0x44(%esp)
    95c5:	c6 00 30             	movb   $0x30,(%eax)
    95c8:	eb 2a                	jmp    95f4 <number+0x1e4>
		else if (base == 16) {
    95ca:	83 7c 24 4c 10       	cmpl   $0x10,0x4c(%esp)
    95cf:	75 23                	jne    95f4 <number+0x1e4>
			*str++ = '0';
    95d1:	8b 44 24 44          	mov    0x44(%esp),%eax
    95d5:	8d 50 01             	lea    0x1(%eax),%edx
    95d8:	89 54 24 44          	mov    %edx,0x44(%esp)
    95dc:	c6 00 30             	movb   $0x30,(%eax)
			*str++ = digits[33];						// 'X'或'x'
    95df:	8b 44 24 44          	mov    0x44(%esp),%eax
    95e3:	8d 50 01             	lea    0x1(%eax),%edx
    95e6:	89 54 24 44          	mov    %edx,0x44(%esp)
    95ea:	8b 54 24 38          	mov    0x38(%esp),%edx
    95ee:	0f b6 52 21          	movzbl 0x21(%edx),%edx
    95f2:	88 10                	mov    %dl,(%eax)
		}
	// 若类型中没有左调整(左靠齐)标志,则在剩余宽度中存放c字符('0'或空格)
	if (!(type & LEFT))
    95f4:	8b 44 24 58          	mov    0x58(%esp),%eax
    95f8:	83 e0 10             	and    $0x10,%eax
    95fb:	85 c0                	test   %eax,%eax
    95fd:	75 33                	jne    9632 <number+0x222>
		while(size-- > 0)
    95ff:	eb 12                	jmp    9613 <number+0x203>
			*str++ = c;
    9601:	8b 44 24 44          	mov    0x44(%esp),%eax
    9605:	8d 50 01             	lea    0x1(%eax),%edx
    9608:	89 54 24 44          	mov    %edx,0x44(%esp)
    960c:	0f b6 54 24 33       	movzbl 0x33(%esp),%edx
    9611:	88 10                	mov    %dl,(%eax)
		while(size-- > 0)
    9613:	8b 44 24 50          	mov    0x50(%esp),%eax
    9617:	8d 50 ff             	lea    -0x1(%eax),%edx
    961a:	89 54 24 50          	mov    %edx,0x50(%esp)
    961e:	85 c0                	test   %eax,%eax
    9620:	7f df                	jg     9601 <number+0x1f1>
	// 此时i存有数值num的数字个数.若数字个数小于精度值,则str中放入(精度值-i)个'0'.
	while(i < precision--)
    9622:	eb 0e                	jmp    9632 <number+0x222>
		*str++ = '0';
    9624:	8b 44 24 44          	mov    0x44(%esp),%eax
    9628:	8d 50 01             	lea    0x1(%eax),%edx
    962b:	89 54 24 44          	mov    %edx,0x44(%esp)
    962f:	c6 00 30             	movb   $0x30,(%eax)
	while(i < precision--)
    9632:	8b 44 24 54          	mov    0x54(%esp),%eax
    9636:	8d 50 ff             	lea    -0x1(%eax),%edx
    9639:	89 54 24 54          	mov    %edx,0x54(%esp)
    963d:	39 44 24 34          	cmp    %eax,0x34(%esp)
    9641:	7c e1                	jl     9624 <number+0x214>
	// 将数值转换好的数字字符填入str中.共i个.
	while(i-- > 0)
    9643:	eb 1a                	jmp    965f <number+0x24f>
		*str++ = tmp[i];
    9645:	8b 44 24 44          	mov    0x44(%esp),%eax
    9649:	8d 50 01             	lea    0x1(%eax),%edx
    964c:	89 54 24 44          	mov    %edx,0x44(%esp)
    9650:	8d 4c 24 08          	lea    0x8(%esp),%ecx
    9654:	8b 54 24 34          	mov    0x34(%esp),%edx
    9658:	01 ca                	add    %ecx,%edx
    965a:	0f b6 12             	movzbl (%edx),%edx
    965d:	88 10                	mov    %dl,(%eax)
	while(i-- > 0)
    965f:	8b 44 24 34          	mov    0x34(%esp),%eax
    9663:	8d 50 ff             	lea    -0x1(%eax),%edx
    9666:	89 54 24 34          	mov    %edx,0x34(%esp)
    966a:	85 c0                	test   %eax,%eax
    966c:	7f d7                	jg     9645 <number+0x235>
	// 若宽度值仍大于零,则表示类型标志中有左靠齐标志.则在剩余宽度中放入空格.
	while(size-- > 0)
    966e:	eb 0e                	jmp    967e <number+0x26e>
		*str++ = ' ';
    9670:	8b 44 24 44          	mov    0x44(%esp),%eax
    9674:	8d 50 01             	lea    0x1(%eax),%edx
    9677:	89 54 24 44          	mov    %edx,0x44(%esp)
    967b:	c6 00 20             	movb   $0x20,(%eax)
	while(size-- > 0)
    967e:	8b 44 24 50          	mov    0x50(%esp),%eax
    9682:	8d 50 ff             	lea    -0x1(%eax),%edx
    9685:	89 54 24 50          	mov    %edx,0x50(%esp)
    9689:	85 c0                	test   %eax,%eax
    968b:	7f e3                	jg     9670 <number+0x260>
	return str;											// 返回转换好的指向字符串末端后的指针.
    968d:	8b 44 24 44          	mov    0x44(%esp),%eax
}
    9691:	83 c4 40             	add    $0x40,%esp
    9694:	c3                   	ret    

00009695 <vsprintf>:

// 下面函数是送格式化输出到字符串中.
// 为了能在内核中使用格式化的输出,Linus在内核实现了该C标准函数.
// 其中参数fmt是格式字符串;args是个数变化的值;buf是输出字符串缓冲区.
int vsprintf(char *buf, const char *fmt, va_list args)
{
    9695:	53                   	push   %ebx
    9696:	83 ec 30             	sub    $0x30,%esp
    9699:	e8 5c d6 ff ff       	call   6cfa <__x86.get_pc_thunk.bx>
    969e:	81 c3 62 89 02 00    	add    $0x28962,%ebx
				   											number of chars for from string */
														/* min.整数数字个数;max.字符串中字符个数 */
	int qualifier;										/* 'h', 'l', or 'L' for integer fields */	/* 'h','l',或 'L'用于整数字段 */

	// 首先将字符指针指向buf,然后扫描格式字符串,对各个格式转换指示进行相应的处理.
	for (str=buf ; *fmt ; ++fmt) {
    96a4:	8b 44 24 38          	mov    0x38(%esp),%eax
    96a8:	89 44 24 24          	mov    %eax,0x24(%esp)
    96ac:	e9 47 04 00 00       	jmp    9af8 <.L63+0x51>
		// 格式转换指示字符串均'%'开始,这里从fmt格式字符串中扫描'%',寻找格式转换字符串的开始.不是格式指示的一般字符均被依次存入str.
		if (*fmt != '%') {
    96b1:	8b 44 24 3c          	mov    0x3c(%esp),%eax
    96b5:	0f b6 00             	movzbl (%eax),%eax
    96b8:	3c 25                	cmp    $0x25,%al
    96ba:	74 19                	je     96d5 <vsprintf+0x40>
			*str++ = *fmt;
    96bc:	8b 54 24 3c          	mov    0x3c(%esp),%edx
    96c0:	8b 44 24 24          	mov    0x24(%esp),%eax
    96c4:	8d 48 01             	lea    0x1(%eax),%ecx
    96c7:	89 4c 24 24          	mov    %ecx,0x24(%esp)
    96cb:	0f b6 12             	movzbl (%edx),%edx
    96ce:	88 10                	mov    %dl,(%eax)
			continue;
    96d0:	e9 18 04 00 00       	jmp    9aed <.L63+0x46>
		}

		// 下面取得格式指示字符串中的标志域,并将标志常量放入flags变量中.
		/* process flags */
		flags = 0;
    96d5:	c7 44 24 1c 00 00 00 	movl   $0x0,0x1c(%esp)
    96dc:	00 
		repeat:
			++fmt;		/* this also skips first '%' */
    96dd:	8b 44 24 3c          	mov    0x3c(%esp),%eax
    96e1:	83 c0 01             	add    $0x1,%eax
    96e4:	89 44 24 3c          	mov    %eax,0x3c(%esp)
			switch (*fmt) {
    96e8:	8b 44 24 3c          	mov    0x3c(%esp),%eax
    96ec:	0f b6 00             	movzbl (%eax),%eax
    96ef:	0f be c0             	movsbl %al,%eax
    96f2:	83 e8 20             	sub    $0x20,%eax
    96f5:	83 f8 10             	cmp    $0x10,%eax
    96f8:	77 31                	ja     972b <.L49>
    96fa:	c1 e0 02             	shl    $0x2,%eax
    96fd:	8b 84 18 60 45 ff ff 	mov    -0xbaa0(%eax,%ebx,1),%eax
    9704:	01 d8                	add    %ebx,%eax
    9706:	ff e0                	jmp    *%eax

00009708 <.L54>:
				case '-': flags |= LEFT; goto repeat;		// 左靠齐调整
    9708:	83 4c 24 1c 10       	orl    $0x10,0x1c(%esp)
    970d:	eb ce                	jmp    96dd <vsprintf+0x48>

0000970f <.L53>:
				case '+': flags |= PLUS; goto repeat;		// 放加号
    970f:	83 4c 24 1c 04       	orl    $0x4,0x1c(%esp)
    9714:	eb c7                	jmp    96dd <vsprintf+0x48>

00009716 <.L50>:
				case ' ': flags |= SPACE; goto repeat;		// 放空格
    9716:	83 4c 24 1c 08       	orl    $0x8,0x1c(%esp)
    971b:	eb c0                	jmp    96dd <vsprintf+0x48>

0000971d <.L52>:
				case '#': flags |= SPECIAL; goto repeat;	// 是特殊转换
    971d:	83 4c 24 1c 20       	orl    $0x20,0x1c(%esp)
    9722:	eb b9                	jmp    96dd <vsprintf+0x48>

00009724 <.L55>:
				case '0': flags |= ZEROPAD; goto repeat;	// 要填零(即'0')
    9724:	83 4c 24 1c 01       	orl    $0x1,0x1c(%esp)
    9729:	eb b2                	jmp    96dd <vsprintf+0x48>

0000972b <.L49>:
				}

		// 取当前参数字段宽度域值,放入field_width变量中.如果宽度域中是数值则直接其为宽度值.如果宽度域中是字符'*',表示下一个参数指定宽度.因此
		// 调用va_arg取宽度值.若此时宽度值小于0,则该负数表示其带有标志域'-'标志(左靠齐),因此还需在标志变量中添入该标志,并将字段宽度值取为其绝对值.
		/* get field width */
		field_width = -1;
    972b:	c7 44 24 18 ff ff ff 	movl   $0xffffffff,0x18(%esp)
    9732:	ff 
		if (is_digit(*fmt))
    9733:	8b 44 24 3c          	mov    0x3c(%esp),%eax
    9737:	0f b6 00             	movzbl (%eax),%eax
    973a:	3c 2f                	cmp    $0x2f,%al
    973c:	7e 1e                	jle    975c <.L49+0x31>
    973e:	8b 44 24 3c          	mov    0x3c(%esp),%eax
    9742:	0f b6 00             	movzbl (%eax),%eax
    9745:	3c 39                	cmp    $0x39,%al
    9747:	7f 13                	jg     975c <.L49+0x31>
			field_width = skip_atoi(&fmt);
    9749:	8d 44 24 3c          	lea    0x3c(%esp),%eax
    974d:	50                   	push   %eax
    974e:	e8 55 fc ff ff       	call   93a8 <skip_atoi>
    9753:	83 c4 04             	add    $0x4,%esp
    9756:	89 44 24 18          	mov    %eax,0x18(%esp)
    975a:	eb 36                	jmp    9792 <.L49+0x67>
		else if (*fmt == '*') {
    975c:	8b 44 24 3c          	mov    0x3c(%esp),%eax
    9760:	0f b6 00             	movzbl (%eax),%eax
    9763:	3c 2a                	cmp    $0x2a,%al
    9765:	75 2b                	jne    9792 <.L49+0x67>
			/* it's the next argument */
			++fmt;
    9767:	8b 44 24 3c          	mov    0x3c(%esp),%eax
    976b:	83 c0 01             	add    $0x1,%eax
    976e:	89 44 24 3c          	mov    %eax,0x3c(%esp)
			field_width = va_arg(args, int);
    9772:	83 44 24 40 04       	addl   $0x4,0x40(%esp)
    9777:	8b 44 24 40          	mov    0x40(%esp),%eax
    977b:	8b 40 fc             	mov    -0x4(%eax),%eax
    977e:	89 44 24 18          	mov    %eax,0x18(%esp)
			if (field_width < 0) {
    9782:	83 7c 24 18 00       	cmpl   $0x0,0x18(%esp)
    9787:	79 09                	jns    9792 <.L49+0x67>
				field_width = -field_width;
    9789:	f7 5c 24 18          	negl   0x18(%esp)
				flags |= LEFT;
    978d:	83 4c 24 1c 10       	orl    $0x10,0x1c(%esp)
		}

	// 下面这段代码,取格式转换串的精度域,并放入precision变量中.精度域开始的标志是'.'.其处理过程与上面宽度域的类似.如果精度域中是数值则直接取其为
	// 精度值.如果精度域中是字符'*',表示下一个参数指定精度.因此调用va_arg取精度值.若此时宽度值小于0,则将字段精度值取为0.
		/* get the precision */
		precision = -1;
    9792:	c7 44 24 14 ff ff ff 	movl   $0xffffffff,0x14(%esp)
    9799:	ff 
		if (*fmt == '.') {
    979a:	8b 44 24 3c          	mov    0x3c(%esp),%eax
    979e:	0f b6 00             	movzbl (%eax),%eax
    97a1:	3c 2e                	cmp    $0x2e,%al
    97a3:	75 69                	jne    980e <.L49+0xe3>
			++fmt;
    97a5:	8b 44 24 3c          	mov    0x3c(%esp),%eax
    97a9:	83 c0 01             	add    $0x1,%eax
    97ac:	89 44 24 3c          	mov    %eax,0x3c(%esp)
			if (is_digit(*fmt))
    97b0:	8b 44 24 3c          	mov    0x3c(%esp),%eax
    97b4:	0f b6 00             	movzbl (%eax),%eax
    97b7:	3c 2f                	cmp    $0x2f,%al
    97b9:	7e 1e                	jle    97d9 <.L49+0xae>
    97bb:	8b 44 24 3c          	mov    0x3c(%esp),%eax
    97bf:	0f b6 00             	movzbl (%eax),%eax
    97c2:	3c 39                	cmp    $0x39,%al
    97c4:	7f 13                	jg     97d9 <.L49+0xae>
				precision = skip_atoi(&fmt);
    97c6:	8d 44 24 3c          	lea    0x3c(%esp),%eax
    97ca:	50                   	push   %eax
    97cb:	e8 d8 fb ff ff       	call   93a8 <skip_atoi>
    97d0:	83 c4 04             	add    $0x4,%esp
    97d3:	89 44 24 14          	mov    %eax,0x14(%esp)
    97d7:	eb 26                	jmp    97ff <.L49+0xd4>
			else if (*fmt == '*') {
    97d9:	8b 44 24 3c          	mov    0x3c(%esp),%eax
    97dd:	0f b6 00             	movzbl (%eax),%eax
    97e0:	3c 2a                	cmp    $0x2a,%al
    97e2:	75 1b                	jne    97ff <.L49+0xd4>
				/* it's the next argument */
                                ++fmt;
    97e4:	8b 44 24 3c          	mov    0x3c(%esp),%eax
    97e8:	83 c0 01             	add    $0x1,%eax
    97eb:	89 44 24 3c          	mov    %eax,0x3c(%esp)
				precision = va_arg(args, int);
    97ef:	83 44 24 40 04       	addl   $0x4,0x40(%esp)
    97f4:	8b 44 24 40          	mov    0x40(%esp),%eax
    97f8:	8b 40 fc             	mov    -0x4(%eax),%eax
    97fb:	89 44 24 14          	mov    %eax,0x14(%esp)
			}
			if (precision < 0)
    97ff:	83 7c 24 14 00       	cmpl   $0x0,0x14(%esp)
    9804:	79 08                	jns    980e <.L49+0xe3>
